
Optional file libmchp_peripheral.a not found

Optional file libmchp_peripheral_32MX270F256B.a not found
Archive member included because of file (symbol)

c:/program files/microchip/xc32/v2.50/bin/bin/../../lib/gcc/pic32mx/4.8.3\libgcc.a(_udivdi3.o)
                              build/default/debug/UART.o (__udivdi3)
c:/program files/microchip/xc32/v2.50/bin/bin/../../lib/gcc/pic32mx/4.8.3/../../../../pic32mx/lib\libpic32.a(memcmp.o)
                              build/default/debug/FreeRTOS/Core/portable/MPLAB/PIC32MX/port.o (memcmp)
c:/program files/microchip/xc32/v2.50/bin/bin/../../lib/gcc/pic32mx/4.8.3/../../../../pic32mx/lib\libpic32.a(memcpy.o)
                              build/default/debug/FreeRTOS/Core/queue.o (memcpy)
c:/program files/microchip/xc32/v2.50/bin/bin/../../lib/gcc/pic32mx/4.8.3/../../../../pic32mx/lib\libpic32.a(memset.o)
                              build/default/debug/FreeRTOS/Core/stream_buffer.o (memset)
c:/program files/microchip/xc32/v2.50/bin/bin/../../lib/gcc/pic32mx/4.8.3/../../../../pic32mx/lib\libpic32.a(strcmp.o)
                              build/default/debug/FreeRTOS/TCPIP/FreeRTOS_DNS.o (strcmp)
c:/program files/microchip/xc32/v2.50/bin/bin/../../lib/gcc/pic32mx/4.8.3/../../../../pic32mx/lib\libpic32.a(strcpy.o)
                              build/default/debug/FreeRTOS/TCPIP/FreeRTOS_DNS.o (strcpy)
c:/program files/microchip/xc32/v2.50/bin/bin/../../lib/gcc/pic32mx/4.8.3/../../../../pic32mx/lib\libpic32.a(strlen.o)
                              build/default/debug/FreeRTOS/TCPIP/FreeRTOS_DNS.o (strlen)
c:/program files/microchip/xc32/v2.50/bin/bin/../../lib/gcc/pic32mx/4.8.3/../../../../pic32mx/lib\libpic32.a(default-bootstrap-exception-handler.o)
                              C:\Users\Thorb\AppData\Local\Temp\ccdgVN5b.o (_bootstrap_exception_handler)
c:/program files/microchip/xc32/v2.50/bin/bin/../../lib/gcc/pic32mx/4.8.3/../../../../pic32mx/lib\libpic32.a(default-on-reset.o)
                              C:\Users\Thorb\AppData\Local\Temp\ccdgVN5b.o (_on_reset)
c:/program files/microchip/xc32/v2.50/bin/bin/../../lib/gcc/pic32mx/4.8.3/../../../../pic32mx/lib\libpic32.a(default-on-bootstrap.o)
                              C:\Users\Thorb\AppData\Local\Temp\ccdgVN5b.o (_on_bootstrap)
c:/program files/microchip/xc32/v2.50/bin/bin/../../lib/gcc/pic32mx/4.8.3/../../../../pic32mx/lib\libpic32.a(default-nmi-handler.o)
                              C:\Users\Thorb\AppData\Local\Temp\ccdgVN5b.o (_nmi_handler)
c:/program files/microchip/xc32/v2.50/bin/bin/../../lib/gcc/pic32mx/4.8.3/../../../../pic32mx/lib\libpic32.a(pic32_data_init.o)
                              C:\Users\Thorb\AppData\Local\Temp\ccdgVN5b.o (__pic32_data_init)
c:/program files/microchip/xc32/v2.50/bin/bin/../../lib/gcc/pic32mx/4.8.3/../../../../pic32mx/lib\libpic32.a(general-exception.o)
                              C:\Users\Thorb\AppData\Local\Temp\ccdgVN5b.o (_general_exception_context)
c:/program files/microchip/xc32/v2.50/bin/bin/../../lib/gcc/pic32mx/4.8.3/../../../../pic32mx/lib\libpic32.a(vector0.o)
                              C:\Users\Thorb\AppData\Local\Temp\ccH318PN.o (__vector_dispatch_0)
c:/program files/microchip/xc32/v2.50/bin/bin/../../lib/gcc/pic32mx/4.8.3/../../../../pic32mx/lib\libpic32.a(vector2.o)
                              C:\Users\Thorb\AppData\Local\Temp\ccH318PN.o (__vector_dispatch_2)
c:/program files/microchip/xc32/v2.50/bin/bin/../../lib/gcc/pic32mx/4.8.3/../../../../pic32mx/lib\libpic32.a(vector3.o)
                              C:\Users\Thorb\AppData\Local\Temp\ccH318PN.o (__vector_dispatch_3)
c:/program files/microchip/xc32/v2.50/bin/bin/../../lib/gcc/pic32mx/4.8.3/../../../../pic32mx/lib\libpic32.a(vector5.o)
                              C:\Users\Thorb\AppData\Local\Temp\ccH318PN.o (__vector_dispatch_5)
c:/program files/microchip/xc32/v2.50/bin/bin/../../lib/gcc/pic32mx/4.8.3/../../../../pic32mx/lib\libpic32.a(vector6.o)
                              C:\Users\Thorb\AppData\Local\Temp\ccH318PN.o (__vector_dispatch_6)
c:/program files/microchip/xc32/v2.50/bin/bin/../../lib/gcc/pic32mx/4.8.3/../../../../pic32mx/lib\libpic32.a(vector7.o)
                              C:\Users\Thorb\AppData\Local\Temp\ccH318PN.o (__vector_dispatch_7)
c:/program files/microchip/xc32/v2.50/bin/bin/../../lib/gcc/pic32mx/4.8.3/../../../../pic32mx/lib\libpic32.a(vector8.o)
                              C:\Users\Thorb\AppData\Local\Temp\ccH318PN.o (__vector_dispatch_8)
c:/program files/microchip/xc32/v2.50/bin/bin/../../lib/gcc/pic32mx/4.8.3/../../../../pic32mx/lib\libpic32.a(vector9.o)
                              C:\Users\Thorb\AppData\Local\Temp\ccH318PN.o (__vector_dispatch_9)
c:/program files/microchip/xc32/v2.50/bin/bin/../../lib/gcc/pic32mx/4.8.3/../../../../pic32mx/lib\libpic32.a(vector10.o)
                              C:\Users\Thorb\AppData\Local\Temp\ccH318PN.o (__vector_dispatch_10)
c:/program files/microchip/xc32/v2.50/bin/bin/../../lib/gcc/pic32mx/4.8.3/../../../../pic32mx/lib\libpic32.a(vector11.o)
                              C:\Users\Thorb\AppData\Local\Temp\ccH318PN.o (__vector_dispatch_11)
c:/program files/microchip/xc32/v2.50/bin/bin/../../lib/gcc/pic32mx/4.8.3/../../../../pic32mx/lib\libpic32.a(vector12.o)
                              C:\Users\Thorb\AppData\Local\Temp\ccH318PN.o (__vector_dispatch_12)
c:/program files/microchip/xc32/v2.50/bin/bin/../../lib/gcc/pic32mx/4.8.3/../../../../pic32mx/lib\libpic32.a(vector13.o)
                              C:\Users\Thorb\AppData\Local\Temp\ccH318PN.o (__vector_dispatch_13)
c:/program files/microchip/xc32/v2.50/bin/bin/../../lib/gcc/pic32mx/4.8.3/../../../../pic32mx/lib\libpic32.a(vector14.o)
                              C:\Users\Thorb\AppData\Local\Temp\ccH318PN.o (__vector_dispatch_14)
c:/program files/microchip/xc32/v2.50/bin/bin/../../lib/gcc/pic32mx/4.8.3/../../../../pic32mx/lib\libpic32.a(vector15.o)
                              C:\Users\Thorb\AppData\Local\Temp\ccH318PN.o (__vector_dispatch_15)
c:/program files/microchip/xc32/v2.50/bin/bin/../../lib/gcc/pic32mx/4.8.3/../../../../pic32mx/lib\libpic32.a(vector16.o)
                              C:\Users\Thorb\AppData\Local\Temp\ccH318PN.o (__vector_dispatch_16)
c:/program files/microchip/xc32/v2.50/bin/bin/../../lib/gcc/pic32mx/4.8.3/../../../../pic32mx/lib\libpic32.a(vector17.o)
                              C:\Users\Thorb\AppData\Local\Temp\ccH318PN.o (__vector_dispatch_17)
c:/program files/microchip/xc32/v2.50/bin/bin/../../lib/gcc/pic32mx/4.8.3/../../../../pic32mx/lib\libpic32.a(vector18.o)
                              C:\Users\Thorb\AppData\Local\Temp\ccH318PN.o (__vector_dispatch_18)
c:/program files/microchip/xc32/v2.50/bin/bin/../../lib/gcc/pic32mx/4.8.3/../../../../pic32mx/lib\libpic32.a(vector19.o)
                              C:\Users\Thorb\AppData\Local\Temp\ccH318PN.o (__vector_dispatch_19)
c:/program files/microchip/xc32/v2.50/bin/bin/../../lib/gcc/pic32mx/4.8.3/../../../../pic32mx/lib\libpic32.a(vector20.o)
                              C:\Users\Thorb\AppData\Local\Temp\ccH318PN.o (__vector_dispatch_20)
c:/program files/microchip/xc32/v2.50/bin/bin/../../lib/gcc/pic32mx/4.8.3/../../../../pic32mx/lib\libpic32.a(vector21.o)
                              C:\Users\Thorb\AppData\Local\Temp\ccH318PN.o (__vector_dispatch_21)
c:/program files/microchip/xc32/v2.50/bin/bin/../../lib/gcc/pic32mx/4.8.3/../../../../pic32mx/lib\libpic32.a(vector22.o)
                              C:\Users\Thorb\AppData\Local\Temp\ccH318PN.o (__vector_dispatch_22)
c:/program files/microchip/xc32/v2.50/bin/bin/../../lib/gcc/pic32mx/4.8.3/../../../../pic32mx/lib\libpic32.a(vector23.o)
                              C:\Users\Thorb\AppData\Local\Temp\ccH318PN.o (__vector_dispatch_23)
c:/program files/microchip/xc32/v2.50/bin/bin/../../lib/gcc/pic32mx/4.8.3/../../../../pic32mx/lib\libpic32.a(vector24.o)
                              C:\Users\Thorb\AppData\Local\Temp\ccH318PN.o (__vector_dispatch_24)
c:/program files/microchip/xc32/v2.50/bin/bin/../../lib/gcc/pic32mx/4.8.3/../../../../pic32mx/lib\libpic32.a(vector25.o)
                              C:\Users\Thorb\AppData\Local\Temp\ccH318PN.o (__vector_dispatch_25)
c:/program files/microchip/xc32/v2.50/bin/bin/../../lib/gcc/pic32mx/4.8.3/../../../../pic32mx/lib\libpic32.a(vector26.o)
                              C:\Users\Thorb\AppData\Local\Temp\ccH318PN.o (__vector_dispatch_26)
c:/program files/microchip/xc32/v2.50/bin/bin/../../lib/gcc/pic32mx/4.8.3/../../../../pic32mx/lib\libpic32.a(vector27.o)
                              C:\Users\Thorb\AppData\Local\Temp\ccH318PN.o (__vector_dispatch_27)
c:/program files/microchip/xc32/v2.50/bin/bin/../../lib/gcc/pic32mx/4.8.3/../../../../pic32mx/lib\libpic32.a(vector28.o)
                              C:\Users\Thorb\AppData\Local\Temp\ccH318PN.o (__vector_dispatch_28)
c:/program files/microchip/xc32/v2.50/bin/bin/../../lib/gcc/pic32mx/4.8.3/../../../../pic32mx/lib\libpic32.a(vector29.o)
                              C:\Users\Thorb\AppData\Local\Temp\ccH318PN.o (__vector_dispatch_29)
c:/program files/microchip/xc32/v2.50/bin/bin/../../lib/gcc/pic32mx/4.8.3/../../../../pic32mx/lib\libpic32.a(vector30.o)
                              C:\Users\Thorb\AppData\Local\Temp\ccH318PN.o (__vector_dispatch_30)
c:/program files/microchip/xc32/v2.50/bin/bin/../../lib/gcc/pic32mx/4.8.3/../../../../pic32mx/lib\libpic32.a(vector31.o)
                              C:\Users\Thorb\AppData\Local\Temp\ccH318PN.o (__vector_dispatch_31)
c:/program files/microchip/xc32/v2.50/bin/bin/../../lib/gcc/pic32mx/4.8.3/../../../../pic32mx/lib\libpic32.a(vector32.o)
                              C:\Users\Thorb\AppData\Local\Temp\ccH318PN.o (__vector_dispatch_32)
c:/program files/microchip/xc32/v2.50/bin/bin/../../lib/gcc/pic32mx/4.8.3/../../../../pic32mx/lib\libpic32.a(vector33.o)
                              C:\Users\Thorb\AppData\Local\Temp\ccH318PN.o (__vector_dispatch_33)
c:/program files/microchip/xc32/v2.50/bin/bin/../../lib/gcc/pic32mx/4.8.3/../../../../pic32mx/lib\libpic32.a(vector34.o)
                              C:\Users\Thorb\AppData\Local\Temp\ccH318PN.o (__vector_dispatch_34)
c:/program files/microchip/xc32/v2.50/bin/bin/../../lib/gcc/pic32mx/4.8.3/../../../../pic32mx/lib\libpic32.a(vector35.o)
                              C:\Users\Thorb\AppData\Local\Temp\ccH318PN.o (__vector_dispatch_35)
c:/program files/microchip/xc32/v2.50/bin/bin/../../lib/gcc/pic32mx/4.8.3/../../../../pic32mx/lib\libpic32.a(vector36.o)
                              C:\Users\Thorb\AppData\Local\Temp\ccH318PN.o (__vector_dispatch_36)
c:/program files/microchip/xc32/v2.50/bin/bin/../../lib/gcc/pic32mx/4.8.3/../../../../pic32mx/lib\libpic32.a(vector37.o)
                              C:\Users\Thorb\AppData\Local\Temp\ccH318PN.o (__vector_dispatch_37)
c:/program files/microchip/xc32/v2.50/bin/bin/../../lib/gcc/pic32mx/4.8.3/../../../../pic32mx/lib\libpic32.a(vector38.o)
                              C:\Users\Thorb\AppData\Local\Temp\ccH318PN.o (__vector_dispatch_38)
c:/program files/microchip/xc32/v2.50/bin/bin/../../lib/gcc/pic32mx/4.8.3/../../../../pic32mx/lib\libpic32.a(vector39.o)
                              C:\Users\Thorb\AppData\Local\Temp\ccH318PN.o (__vector_dispatch_39)
c:/program files/microchip/xc32/v2.50/bin/bin/../../lib/gcc/pic32mx/4.8.3/../../../../pic32mx/lib\libpic32.a(defaultinterrupt.o)
                              c:/program files/microchip/xc32/v2.50/bin/bin/../../lib/gcc/pic32mx/4.8.3/../../../../pic32mx/lib\libpic32.a(vector0.o) (_DefaultInterrupt)
c:/program files/microchip/xc32/v2.50/bin/bin/../../lib/gcc/pic32mx/4.8.3/../../../../pic32mx/lib\liblega-c.a(memmove.o)
                              build/default/debug/FreeRTOS/TCPIP/FreeRTOS_IP.o (memmove)
c:/program files/microchip/xc32/v2.50/bin/bin/../../lib/gcc/pic32mx/4.8.3/../../../../pic32mx/lib\liblega-c.a(rand.o)
                              build/default/debug/NetworkInterface_LAN9250.o (rand)
c:/program files/microchip/xc32/v2.50/bin/bin/../../lib/gcc/pic32mx/4.8.3/../../../../pic32mx/lib\liblega-c.a(snprintf_cdnopsuxX.eo)
                              build/default/debug/FreeRTOS/TCPIP/FreeRTOS_IP.o (_snprintf_cdnopsuxX)
c:/program files/microchip/xc32/v2.50/bin/bin/../../lib/gcc/pic32mx/4.8.3/../../../../pic32mx/lib\liblega-c.a(snprintf_cdnopuxX.eo)
                              build/default/debug/FreeRTOS/TCPIP/FreeRTOS_Sockets.o (_snprintf_cdnopuxX)
c:/program files/microchip/xc32/v2.50/bin/bin/../../lib/gcc/pic32mx/4.8.3/../../../../pic32mx/lib\liblega-c.a(vsprintf.o)
                              build/default/debug/UART.o (vsprintf)
c:/program files/microchip/xc32/v2.50/bin/bin/../../lib/gcc/pic32mx/4.8.3/../../../../pic32mx/lib\liblega-c.a(stubs.o)
                              c:/program files/microchip/xc32/v2.50/bin/bin/../../lib/gcc/pic32mx/4.8.3/../../../../pic32mx/lib\liblega-c.a(rand.o) (_libc_private_storage)
c:/program files/microchip/xc32/v2.50/bin/bin/../../lib/gcc/pic32mx/4.8.3/../../../../pic32mx/lib\liblega-c.a(_doprnt_cdnopsuxX.eo)
                              c:/program files/microchip/xc32/v2.50/bin/bin/../../lib/gcc/pic32mx/4.8.3/../../../../pic32mx/lib\liblega-c.a(snprintf_cdnopsuxX.eo) (_do_print_cdnopsuxX)
c:/program files/microchip/xc32/v2.50/bin/bin/../../lib/gcc/pic32mx/4.8.3/../../../../pic32mx/lib\liblega-c.a(_doprnt_cdnopuxX.eo)
                              c:/program files/microchip/xc32/v2.50/bin/bin/../../lib/gcc/pic32mx/4.8.3/../../../../pic32mx/lib\liblega-c.a(snprintf_cdnopuxX.eo) (_do_print_cdnopuxX)
c:/program files/microchip/xc32/v2.50/bin/bin/../../lib/gcc/pic32mx/4.8.3/../../../../pic32mx/lib\liblega-c.a(_doprnt.o)
                              c:/program files/microchip/xc32/v2.50/bin/bin/../../lib/gcc/pic32mx/4.8.3/../../../../pic32mx/lib\liblega-c.a(vsprintf.o) (do_print)
c:/program files/microchip/xc32/v2.50/bin/bin/../../lib/gcc/pic32mx/4.8.3/../../../../pic32mx/lib\liblega-c.a(_iobdata.o)
                              c:/program files/microchip/xc32/v2.50/bin/bin/../../lib/gcc/pic32mx/4.8.3/../../../../pic32mx/lib\liblega-c.a(_doprnt_cdnopsuxX.eo) (_libc_data)
c:/program files/microchip/xc32/v2.50/bin/bin/../../lib/gcc/pic32mx/4.8.3/../../../../pic32mx/lib\liblega-c.a(_iobfuncs.o)
                              c:/program files/microchip/xc32/v2.50/bin/bin/../../lib/gcc/pic32mx/4.8.3/../../../../pic32mx/lib\liblega-c.a(_iobdata.o) (_filbuf_simple)
c:/program files/microchip/xc32/v2.50/bin/bin/../../lib/gcc/pic32mx/4.8.3/../../../../pic32mx/lib\liblega-c.a(_iobstring.o)
                              c:/program files/microchip/xc32/v2.50/bin/bin/../../lib/gcc/pic32mx/4.8.3/../../../../pic32mx/lib\liblega-c.a(snprintf_cdnopsuxX.eo) (_io_strfuncs)
c:/program files/microchip/xc32/v2.50/bin/bin/../../lib/gcc/pic32mx/4.8.3/../../../../pic32mx/lib\liblega-c.a(fputc.o)
                              c:/program files/microchip/xc32/v2.50/bin/bin/../../lib/gcc/pic32mx/4.8.3/../../../../pic32mx/lib\liblega-c.a(_doprnt_cdnopsuxX.eo) (fputc)
c:/program files/microchip/xc32/v2.50/bin/bin/../../lib/gcc/pic32mx/4.8.3/../../../../pic32mx/lib\liblega-c.a(errno.o)
                              c:/program files/microchip/xc32/v2.50/bin/bin/../../lib/gcc/pic32mx/4.8.3/../../../../pic32mx/lib\liblega-c.a(_iobfuncs.o) (errno)
c:/program files/microchip/xc32/v2.50/bin/bin/../../lib/gcc/pic32mx/4.8.3/../../../../pic32mx/lib\libm.a(dpmodf.o)
                              c:/program files/microchip/xc32/v2.50/bin/bin/../../lib/gcc/pic32mx/4.8.3/../../../../pic32mx/lib\liblega-c.a(_doprnt.o) (modfl)
c:/program files/microchip/xc32/v2.50/bin/bin/../../lib/gcc/pic32mx/4.8.3/../../../../pic32mx/lib\libm.a(dp32div.o)
                              c:/program files/microchip/xc32/v2.50/bin/bin/../../lib/gcc/pic32mx/4.8.3/../../../../pic32mx/lib\liblega-c.a(_doprnt.o) (dpdiv)
c:/program files/microchip/xc32/v2.50/bin/bin/../../lib/gcc/pic32mx/4.8.3/../../../../pic32mx/lib\libm.a(dp32mul.o)
                              c:/program files/microchip/xc32/v2.50/bin/bin/../../lib/gcc/pic32mx/4.8.3/../../../../pic32mx/lib\liblega-c.a(_doprnt.o) (dpmul)
c:/program files/microchip/xc32/v2.50/bin/bin/../../lib/gcc/pic32mx/4.8.3/../../../../pic32mx/lib\libm.a(dp32subadd.o)
                              c:/program files/microchip/xc32/v2.50/bin/bin/../../lib/gcc/pic32mx/4.8.3/../../../../pic32mx/lib\liblega-c.a(_doprnt.o) (dpadd)
c:/program files/microchip/xc32/v2.50/bin/bin/../../lib/gcc/pic32mx/4.8.3/../../../../pic32mx/lib\libm.a(dpcmp.o)
                              c:/program files/microchip/xc32/v2.50/bin/bin/../../lib/gcc/pic32mx/4.8.3/../../../../pic32mx/lib\liblega-c.a(_doprnt.o) (dpcmp)
c:/program files/microchip/xc32/v2.50/bin/bin/../../lib/gcc/pic32mx/4.8.3/../../../../pic32mx/lib\libm.a(dptoli.o)
                              c:/program files/microchip/xc32/v2.50/bin/bin/../../lib/gcc/pic32mx/4.8.3/../../../../pic32mx/lib\liblega-c.a(_doprnt.o) (dptoli)
c:/program files/microchip/xc32/v2.50/bin/bin/../../lib/gcc/pic32mx/4.8.3/../../../../pic32mx/lib\libm.a(litodp.o)
                              c:/program files/microchip/xc32/v2.50/bin/bin/../../lib/gcc/pic32mx/4.8.3/../../../../pic32mx/lib\liblega-c.a(_doprnt.o) (litodp)
c:/program files/microchip/xc32/v2.50/bin/bin/../../lib/gcc/pic32mx/4.8.3\libgcc.a(_umoddi3.o)
                              c:/program files/microchip/xc32/v2.50/bin/bin/../../lib/gcc/pic32mx/4.8.3/../../../../pic32mx/lib\liblega-c.a(_doprnt_cdnopsuxX.eo) (__umoddi3)
c:/program files/microchip/xc32/v2.50/bin/bin/../../lib/gcc/pic32mx/4.8.3/../../../../pic32mx/lib\libpic32.a(_mon_getc.o)
                              c:/program files/microchip/xc32/v2.50/bin/bin/../../lib/gcc/pic32mx/4.8.3/../../../../pic32mx/lib\liblega-c.a(_iobfuncs.o) (_mon_getc)
c:/program files/microchip/xc32/v2.50/bin/bin/../../lib/gcc/pic32mx/4.8.3/../../../../pic32mx/lib\libpic32.a(_mon_write.o)
                              c:/program files/microchip/xc32/v2.50/bin/bin/../../lib/gcc/pic32mx/4.8.3/../../../../pic32mx/lib\liblega-c.a(_iobfuncs.o) (_mon_write)
c:/program files/microchip/xc32/v2.50/bin/bin/../../lib/gcc/pic32mx/4.8.3/../../../../pic32mx/lib\libpic32.a(xc32_uart.o)
                              c:/program files/microchip/xc32/v2.50/bin/bin/../../lib/gcc/pic32mx/4.8.3/../../../../pic32mx/lib\libpic32.a(_mon_getc.o) (__XC_UART)
c:/program files/microchip/xc32/v2.50/bin/bin/../../lib/gcc/pic32mx/4.8.3/../../../../pic32mx/lib\libpic32.a(_mon_putc.o)
                              c:/program files/microchip/xc32/v2.50/bin/bin/../../lib/gcc/pic32mx/4.8.3/../../../../pic32mx/lib\libpic32.a(_mon_write.o) (_mon_putc)

Allocating common symbols
Common symbol       size              file

pxReadyTasksLists   0x64              build/default/debug/FreeRTOS/Core/tasks.o
COMMS_UART          0x4               build/default/debug/FiberComms.o
xPendingReadyList   0x14              build/default/debug/FreeRTOS/Core/tasks.o
xSuspendedTaskList  0x14              build/default/debug/FreeRTOS/Core/tasks.o
xListeningSocket    0x4               build/default/debug/FiberComms.o
pxDelayedTaskList   0x4               build/default/debug/FreeRTOS/Core/tasks.o
xBoundTCPSocketsList
                    0x14              build/default/debug/FreeRTOS/TCPIP/FreeRTOS_Sockets.o
UART_rxDMAOverflow  0x4               build/default/debug/UART.o
ETH_commsSem        0x4               build/default/debug/LAN9250.o
COMMS_UDP           0x4               build/default/debug/FiberComms.o
UART_sendQueue      0x4               build/default/debug/UART.o
currBuff            0x4               build/default/debug/UART.o
pxOverflowDelayedTaskList
                    0x4               build/default/debug/FreeRTOS/Core/tasks.o
ETH_commsWaitSem    0x4               build/default/debug/LAN9250.o
xSocket             0x4               build/default/debug/main_blinky.o
UART_txDMA          0x4               build/default/debug/UART.o
lastClient          0x8               build/default/debug/FiberComms.o
xBindAddress        0x8               build/default/debug/main_blinky.o
xDelayedTaskList1   0x14              build/default/debug/FreeRTOS/Core/tasks.o
xTasksWaitingTermination
                    0x14              build/default/debug/FreeRTOS/Core/tasks.o
xDelayedTaskList2   0x14              build/default/debug/FreeRTOS/Core/tasks.o

Microchip PIC32 Memory-Usage Report

kseg0 Program-Memory Usage
section                    address  length [bytes]      (dec)  Description
-------                 ----------  -------------------------  -----------
.text                   0x9d000000         0xb108       45320  App's exec code 
.text                   0x9d00b108         0x6aec       27372  App's exec code 
.text                   0x9d011bf4         0x52c8       21192  App's exec code 
.text                   0x9d016ebc         0x46e0       18144  App's exec code 
.text                   0x9d01b59c         0x27e4       10212  App's exec code 
.text                   0x9d01dd80         0x2454        9300  App's exec code 
.text                   0x9d0201d4          0xf40        3904  App's exec code 
.text._fconvert         0x9d021114          0xf08        3848   
.text                   0x9d02201c          0xc64        3172  App's exec code 
.text.do_print          0x9d022c80          0xb00        2816   
.text._do_print_cdnopsu 0x9d023780          0xa70        2672   
.text                   0x9d0241f0         0x11bc        4540  App's exec code 
.rodata                 0x9d0253ac          0x7a0        1952  Read-only const 
.text                   0x9d025b4c          0xe40        3648  App's exec code 
.text                   0x9d02698c          0x640        1600  App's exec code 
.rodata                 0x9d026fcc          0x53c        1340  Read-only const 
.text                   0x9d027508          0x4d4        1236  App's exec code 
.rodata                 0x9d0279dc          0x4bc        1212  Read-only const 
.text.dp32mul           0x9d027e98          0x4b8        1208   
.text                   0x9d028350          0x8bc        2236  App's exec code 
.text                   0x9d028c0c          0x454        1108  App's exec code 
.text.dp32subadd        0x9d029060          0x430        1072   
.rodata                 0x9d029490          0x414        1044  Read-only const 
.text                   0x9d0298a4          0x7e0        2016  App's exec code 
.text                   0x9d02a084          0x728        1832  App's exec code 
.dinit                  0x9d02a7ac          0x330         816   
.text.dp32mul           0x9d02aadc          0x32c         812   
.text                   0x9d02ae08          0x314         788  App's exec code 
.rodata                 0x9d02b11c          0x2f8         760  Read-only const 
.text                   0x9d02b414          0x514        1300  App's exec code 
.text                   0x9d02b928          0x378         888  App's exec code 
.rodata                 0x9d02bca0          0x184         388  Read-only const 
.text                   0x9d02be24          0x2d0         720  App's exec code 
.text.rounded.isra.0    0x9d02c0f4          0x160         352   
.rodata                 0x9d02c254          0x140         320  Read-only const 
.text._outcnvrt         0x9d02c394          0x278         632   
.text.dpcmp             0x9d02c60c          0x12c         300   
.text                   0x9d02c738          0x120         288  App's exec code 
.text.libm              0x9d02c858          0x120         288   
.text._flsbuf_simple    0x9d02c978           0xfc         252   
.rodata                 0x9d02ca74           0xf4         244  Read-only const 
.text._mon_getc         0x9d02cb68           0xf0         240   
.text.general_exception 0x9d02cc58           0xdc         220   
.text._mon_putc         0x9d02cd34           0xd8         216   
.rodata                 0x9d02ce0c          0x158         344  Read-only const 
.text.repl.constprop.0  0x9d02cf64           0xac         172   
.text.fputc             0x9d02d010           0xac         172   
.text                   0x9d02d0bc           0xa8         168  App's exec code 
.text.repl              0x9d02d164           0x9c         156   
.text                   0x9d02d200           0x98         152  App's exec code 
.text.dptoli            0x9d02d298           0x90         144   
.text                   0x9d02d328           0x84         132  App's exec code 
.rodata                 0x9d02d3ac            0x4           4  Read-only const 
.rodata                 0x9d02d3b0           0x80         128  Read-only const 
.text._fflush_simple    0x9d02d430           0x80         128   
.text._fwrite_simple    0x9d02d4b0           0x80         128   
.text._snprintf_cdnopsu 0x9d02d530           0x7c         124   
.text.litodp            0x9d02d5ac           0x78         120   
.rodata                 0x9d02d624           0x6c         108  Read-only const 
.text.memmove           0x9d02d690           0x68         104   
.text.__sputn           0x9d02d6f8           0x68         104   
.text.vsprintf          0x9d02d760           0x5c          92   
.text.rand              0x9d02d7bc           0x58          88   
.text.main_entry        0x9d02d814           0x54          84   
.text._mon_write        0x9d02d868           0x4c          76   
.text._bootstrap_except 0x9d02d8b4           0x48          72   
.vector_default         0x9d02d8fc           0x48          72   
.text                   0x9d02d944           0x44          68  App's exec code 
.text.srand             0x9d02d988           0x44          68   
.text._weak_pthread_onc 0x9d02d9cc           0x38          56   
.text._filbuf_simple    0x9d02da04           0x34          52   
.text._fsync_simple     0x9d02da38           0x30          48   
.rodata                 0x9d02da68           0x28          40  Read-only const 
.text.putchar           0x9d02da90           0x24          36   
.text.rand_r            0x9d02dab4           0x20          32   
.text._vfprintf_cdnopsu 0x9d02dad4           0x1c          28   
.text.vfprintf          0x9d02daf0           0x1c          28   
.text.putc              0x9d02db0c           0x1c          28   
.rodata                 0x9d02db28           0x18          24  Read-only const 
.text                   0x9d02db40           0x18          24  App's exec code 
.rodata                 0x9d02db58           0x14          20  Read-only const 
.text._io_exit          0x9d02db6c           0x28          40   
.rodata                 0x9d02db94           0x14          20  Read-only const 
.text._io_exit          0x9d02dba8           0x14          20   
.rodata                 0x9d02dbbc           0x14          20  Read-only const 
.text.__exception_handl 0x9d02dbd0            0xc          12   
.rodata                 0x9d02dbdc           0x14          20  Read-only const 
.rodata                 0x9d02dbf0           0x10          16  Read-only const 
.text._on_reset         0x9d02dc00            0x8           8   
.text._on_bootstrap     0x9d02dc08            0x8           8   
.text._weak_pthread_mut 0x9d02dc10            0x8           8   
.text._weak_pthread_mut 0x9d02dc18            0x8           8   
.text._weak_pthread_mut 0x9d02dc20            0x8           8   
.text._weak_pthread_mut 0x9d02dc28            0x8           8   
.text._weak_pthread_mut 0x9d02dc30            0x8           8   
.text._weak_pthread_mut 0x9d02dc38            0x8           8   
.text._weak_pthread_mut 0x9d02dc40            0x8           8   
.text._weak_pthread_mut 0x9d02dc48            0x8           8   
.text._weak_pthread_mut 0x9d02dc50            0x8           8   
.text._weak_pthread_mut 0x9d02dc58            0x8           8   
.text._weak_pthread_sys 0x9d02dc60            0x8           8   
.text._weak_pthread_sig 0x9d02dc68            0x8           8   
.text._weak_pthread_sig 0x9d02dc70            0x8           8   
.text._weak__pthread_cl 0x9d02dc78            0x8           8   
.text._weak__pthread_cl 0x9d02dc80            0x8           8   
.text._weak__pthread_cl 0x9d02dc88            0x8           8   
.text._weak__pthread_cl 0x9d02dc90            0x8           8   
.text._weak_pthread_key 0x9d02dc98            0x8           8   
.text._weak_pthread_set 0x9d02dca0            0x8           8   
.text._weak_pthread_get 0x9d02dca8            0x8           8   
.text._weak__libc_priva 0x9d02dcb0            0x8           8   
.text._filbuf_string    0x9d02dcb8            0x8           8   
.text._flsbuf_string    0x9d02dcc0            0x8           8   
.text._fflush_string    0x9d02dcc8            0x8           8   
.text._fwrite_string    0x9d02dcd0            0x8           8   
.text._fsync_string     0x9d02dcd8            0x8           8   
.rodata                 0x9d02dce0            0x4           4  Read-only const 
      Total kseg0_program_mem used  :     0x2dce4      187620  72.7% of 0x3f000

kseg0 Boot-Memory Usage
section                    address  length [bytes]      (dec)  Description
-------                 ----------  -------------------------  -----------
         Total kseg0_boot_mem used  :           0           0  

Exception-Memory Usage 
section                    address  length [bytes]      (dec)  Description
-------                 ----------  -------------------------  -----------
.app_excpt              0x9d03f180           0x10          16  General-Exception 
.vector_0               0x9d03f200            0x8           8  Interrupt Vector 0 
.vector_1               0x9d03f220            0x8           8  Interrupt Vector 1 
.vector_2               0x9d03f240            0x8           8  Interrupt Vector 2 
.vector_3               0x9d03f260            0x8           8  Interrupt Vector 3 
.vector_4               0x9d03f280            0x8           8  Interrupt Vector 4 
.vector_5               0x9d03f2a0            0x8           8  Interrupt Vector 5 
.vector_6               0x9d03f2c0            0x8           8  Interrupt Vector 6 
.vector_7               0x9d03f2e0            0x8           8  Interrupt Vector 7 
.vector_8               0x9d03f300            0x8           8  Interrupt Vector 8 
.vector_9               0x9d03f320            0x8           8  Interrupt Vector 9 
.vector_10              0x9d03f340            0x8           8  Interrupt Vector 10 
.vector_11              0x9d03f360            0x8           8  Interrupt Vector 11 
.vector_12              0x9d03f380            0x8           8  Interrupt Vector 12 
.vector_13              0x9d03f3a0            0x8           8  Interrupt Vector 13 
.vector_14              0x9d03f3c0            0x8           8  Interrupt Vector 14 
.vector_15              0x9d03f3e0            0x8           8  Interrupt Vector 15 
.vector_16              0x9d03f400            0x8           8  Interrupt Vector 16 
.vector_17              0x9d03f420            0x8           8  Interrupt Vector 17 
.vector_18              0x9d03f440            0x8           8  Interrupt Vector 18 
.vector_19              0x9d03f460            0x8           8  Interrupt Vector 19 
.vector_20              0x9d03f480            0x8           8  Interrupt Vector 20 
.vector_21              0x9d03f4a0            0x8           8  Interrupt Vector 21 
.vector_22              0x9d03f4c0            0x8           8  Interrupt Vector 22 
.vector_23              0x9d03f4e0            0x8           8  Interrupt Vector 23 
.vector_24              0x9d03f500            0x8           8  Interrupt Vector 24 
.vector_25              0x9d03f520            0x8           8  Interrupt Vector 25 
.vector_26              0x9d03f540            0x8           8  Interrupt Vector 26 
.vector_27              0x9d03f560            0x8           8  Interrupt Vector 27 
.vector_28              0x9d03f580            0x8           8  Interrupt Vector 28 
.vector_29              0x9d03f5a0            0x8           8  Interrupt Vector 29 
.vector_30              0x9d03f5c0            0x8           8  Interrupt Vector 30 
.vector_31              0x9d03f5e0            0x8           8  Interrupt Vector 31 
.vector_32              0x9d03f600            0x8           8  Interrupt Vector 32 
.vector_33              0x9d03f620            0x8           8  Interrupt Vector 33 
.vector_34              0x9d03f640            0x8           8  Interrupt Vector 34 
.vector_35              0x9d03f660            0x8           8  Interrupt Vector 35 
.vector_36              0x9d03f680            0x8           8  Interrupt Vector 36 
.vector_37              0x9d03f6a0            0x8           8  Interrupt Vector 37 
.vector_38              0x9d03f6c0            0x8           8  Interrupt Vector 38 
.vector_39              0x9d03f6e0            0x8           8  Interrupt Vector 39 
.vector_40              0x9d03f700            0x8           8  Interrupt Vector 40 
.vector_41              0x9d03f720            0x8           8  Interrupt Vector 41 
.vector_42              0x9d03f740            0x8           8  Interrupt Vector 42 
.vector_43              0x9d03f760            0x8           8  Interrupt Vector 43 
          Total exception_mem used  :       0x170         368  9.0% of 0x1000

kseg1 Boot-Memory Usage
section                    address  length [bytes]      (dec)  Description
-------                 ----------  -------------------------  -----------
.reset                  0xbfc00000          0x178         376  Reset handler 
.bev_excpt              0xbfc00380           0x10          16  BEV-Exception 
         Total kseg1_boot_mem used  :       0x188         392  33.6% of 0x490
        --------------------------------------------------------------------------
         Total Program Memory used  :     0x2dfdc      188380  71.5% of 0x40490
        --------------------------------------------------------------------------


kseg0 Data-Memory Usage
section                    address  length [bytes]      (dec)  Description
-------                 ----------  -------------------------  -----------
reserve_data_0_kseg0    0x80000000          0x200         512   
         Total kseg0_data_mem used  :       0x200         512  100.0% of 0x200

kseg1 Data-Memory Usage
section                    address  length [bytes]      (dec)  Description
-------                 ----------  -------------------------  -----------
reserve_data_0_kseg1    0xa0000000          0x200         512   
.sdata                  0xa0000200           0x18          24  Small init data 
.sbss                   0xa0000218          0x130         304  Small uninit data 
.bss                    0xa0000348           0xdc         220  Uninitialized data 
.bss                    0xa0000424         0xdf5c       57180  Uninitialized data 
.bss                    0xa000e380          0x3e8        1000  Uninitialized data 
.data                   0xa000e768           0xd4         212  Initialized data 
.bss                    0xa000e83c           0xf8         248  Uninitialized data 
.bss                    0xa000e934           0xac         172  Uninitialized data 
.data                   0xa000e9e0           0x30          48  Initialized data 
.bss                    0xa000ea10           0x48          72  Uninitialized data 
.data                   0xa000ea58           0x18          24  Initialized data 
.bss                    0xa000ea70           0x28          40  Uninitialized data 
.bss                    0xa000ea98           0x10          16  Uninitialized data 
         Total kseg1_data_mem used  :      0xeaa8       60072  91.7% of 0x10000
        --------------------------------------------------------------------------
            Total Data Memory used  :      0xeca8       60584  91.7% of 0x10200
        --------------------------------------------------------------------------


Dynamic Data-Memory Reservation
section                    address  length [bytes]      (dec)  Description
-------                 ----------  -------------------------  -----------
heap                    0xa000eab0           0x10          16  Reserved for heap 
stack                   0xa000ead8         0x1520        5408  Reserved for stack 

        --------------------------------------------------------------------------

Discarded input sections

 .reginfo       0x00000000       0x18 build/default/debug/FreeRTOS/Core/event_groups.o
 .reginfo       0x00000000       0x18 build/default/debug/FreeRTOS/Core/list.o
 .reginfo       0x00000000       0x18 build/default/debug/FreeRTOS/Core/queue.o
 .reginfo       0x00000000       0x18 build/default/debug/FreeRTOS/Core/stream_buffer.o
 .reginfo       0x00000000       0x18 build/default/debug/FreeRTOS/Core/tasks.o
 .reginfo       0x00000000       0x18 build/default/debug/FreeRTOS/Core/timers.o
 .reginfo       0x00000000       0x18 build/default/debug/FreeRTOS/Core/portable/MemMang/heap_4.o
 .reginfo       0x00000000       0x18 build/default/debug/FreeRTOS/Core/portable/MPLAB/PIC32MX/port.o
 .reginfo       0x00000000       0x18 build/default/debug/FreeRTOS/Core/portable/MPLAB/PIC32MX/port_asm.o
 .reginfo       0x00000000       0x18 build/default/debug/FreeRTOS/TCPIP/FreeRTOS_ARP.o
 .reginfo       0x00000000       0x18 build/default/debug/FreeRTOS/TCPIP/FreeRTOS_DHCP.o
 .reginfo       0x00000000       0x18 build/default/debug/FreeRTOS/TCPIP/FreeRTOS_DNS.o
 .reginfo       0x00000000       0x18 build/default/debug/FreeRTOS/TCPIP/FreeRTOS_IP.o
 .reginfo       0x00000000       0x18 build/default/debug/FreeRTOS/TCPIP/FreeRTOS_Sockets.o
 .reginfo       0x00000000       0x18 build/default/debug/FreeRTOS/TCPIP/FreeRTOS_Stream_Buffer.o
 .reginfo       0x00000000       0x18 build/default/debug/FreeRTOS/TCPIP/FreeRTOS_TCP_IP.o
 .reginfo       0x00000000       0x18 build/default/debug/FreeRTOS/TCPIP/FreeRTOS_TCP_WIN.o
 .reginfo       0x00000000       0x18 build/default/debug/FreeRTOS/TCPIP/FreeRTOS_UDP_IP.o
 .reginfo       0x00000000       0x18 build/default/debug/FreeRTOS/TCPIP/portable/BufferManagement/BufferAllocation_2.o
 .reginfo       0x00000000       0x18 build/default/debug/ConfigPerformance.o
 .reginfo       0x00000000       0x18 build/default/debug/LAN9250.o
 .reginfo       0x00000000       0x18 build/default/debug/NetworkInterface_LAN9250.o
 .reginfo       0x00000000       0x18 build/default/debug/SPI.o
 .reginfo       0x00000000       0x18 build/default/debug/UART.o
 .reginfo       0x00000000       0x18 build/default/debug/main.o
 .reginfo       0x00000000       0x18 build/default/debug/main_blinky.o
 .reginfo       0x00000000       0x18 build/default/debug/LED.o
 .reginfo       0x00000000       0x18 build/default/debug/FiberComms.o
 .reginfo       0x00000000       0x18 build/default/debug/min.o
 .reginfo       0x00000000       0x18 C:\Users\Thorb\AppData\Local\Temp\ccdgVN5b.o
 .reginfo       0x00000000       0x18 C:\Users\Thorb\AppData\Local\Temp\ccDG7xxo.o
 .reginfo       0x00000000       0x18 C:\Users\Thorb\AppData\Local\Temp\ccH318PN.o
 .discard       0x00000000       0xb0 C:\Users\Thorb\AppData\Local\Temp\ccH318PN.o
 .reginfo       0x00000000       0x18 c:/program files/microchip/xc32/v2.50/bin/bin/../../lib/gcc/pic32mx/4.8.3/../../../../pic32mx/lib\pic32_software_reset.o
 .reginfo       0x00000000       0x18 c:/program files/microchip/xc32/v2.50/bin/bin/../../lib/gcc/pic32mx/4.8.3/../../../../pic32mx/lib/./proc/32MX270F256B\processor.o
 .reginfo       0x00000000       0x18 c:/program files/microchip/xc32/v2.50/bin/bin/../../lib/gcc/pic32mx/4.8.3\libgcc.a(_udivdi3.o)
 .reginfo       0x00000000       0x18 c:/program files/microchip/xc32/v2.50/bin/bin/../../lib/gcc/pic32mx/4.8.3/../../../../pic32mx/lib\libpic32.a(memcmp.o)
 .reginfo       0x00000000       0x18 c:/program files/microchip/xc32/v2.50/bin/bin/../../lib/gcc/pic32mx/4.8.3/../../../../pic32mx/lib\libpic32.a(memcpy.o)
 .reginfo       0x00000000       0x18 c:/program files/microchip/xc32/v2.50/bin/bin/../../lib/gcc/pic32mx/4.8.3/../../../../pic32mx/lib\libpic32.a(memset.o)
 .reginfo       0x00000000       0x18 c:/program files/microchip/xc32/v2.50/bin/bin/../../lib/gcc/pic32mx/4.8.3/../../../../pic32mx/lib\libpic32.a(strcmp.o)
 .reginfo       0x00000000       0x18 c:/program files/microchip/xc32/v2.50/bin/bin/../../lib/gcc/pic32mx/4.8.3/../../../../pic32mx/lib\libpic32.a(strcpy.o)
 .reginfo       0x00000000       0x18 c:/program files/microchip/xc32/v2.50/bin/bin/../../lib/gcc/pic32mx/4.8.3/../../../../pic32mx/lib\libpic32.a(strlen.o)
 .reginfo       0x00000000       0x18 c:/program files/microchip/xc32/v2.50/bin/bin/../../lib/gcc/pic32mx/4.8.3/../../../../pic32mx/lib\libpic32.a(default-bootstrap-exception-handler.o)
 .reginfo       0x00000000       0x18 c:/program files/microchip/xc32/v2.50/bin/bin/../../lib/gcc/pic32mx/4.8.3/../../../../pic32mx/lib\libpic32.a(default-on-reset.o)
 .reginfo       0x00000000       0x18 c:/program files/microchip/xc32/v2.50/bin/bin/../../lib/gcc/pic32mx/4.8.3/../../../../pic32mx/lib\libpic32.a(default-on-bootstrap.o)
 .reginfo       0x00000000       0x18 c:/program files/microchip/xc32/v2.50/bin/bin/../../lib/gcc/pic32mx/4.8.3/../../../../pic32mx/lib\libpic32.a(default-nmi-handler.o)
 .reginfo       0x00000000       0x18 c:/program files/microchip/xc32/v2.50/bin/bin/../../lib/gcc/pic32mx/4.8.3/../../../../pic32mx/lib\libpic32.a(pic32_data_init.o)
 .reginfo       0x00000000       0x18 c:/program files/microchip/xc32/v2.50/bin/bin/../../lib/gcc/pic32mx/4.8.3/../../../../pic32mx/lib\libpic32.a(general-exception.o)
 .reginfo       0x00000000       0x18 c:/program files/microchip/xc32/v2.50/bin/bin/../../lib/gcc/pic32mx/4.8.3/../../../../pic32mx/lib\libpic32.a(vector0.o)
 .reginfo       0x00000000       0x18 c:/program files/microchip/xc32/v2.50/bin/bin/../../lib/gcc/pic32mx/4.8.3/../../../../pic32mx/lib\libpic32.a(vector2.o)
 .reginfo       0x00000000       0x18 c:/program files/microchip/xc32/v2.50/bin/bin/../../lib/gcc/pic32mx/4.8.3/../../../../pic32mx/lib\libpic32.a(vector3.o)
 .reginfo       0x00000000       0x18 c:/program files/microchip/xc32/v2.50/bin/bin/../../lib/gcc/pic32mx/4.8.3/../../../../pic32mx/lib\libpic32.a(vector5.o)
 .reginfo       0x00000000       0x18 c:/program files/microchip/xc32/v2.50/bin/bin/../../lib/gcc/pic32mx/4.8.3/../../../../pic32mx/lib\libpic32.a(vector6.o)
 .reginfo       0x00000000       0x18 c:/program files/microchip/xc32/v2.50/bin/bin/../../lib/gcc/pic32mx/4.8.3/../../../../pic32mx/lib\libpic32.a(vector7.o)
 .reginfo       0x00000000       0x18 c:/program files/microchip/xc32/v2.50/bin/bin/../../lib/gcc/pic32mx/4.8.3/../../../../pic32mx/lib\libpic32.a(vector8.o)
 .reginfo       0x00000000       0x18 c:/program files/microchip/xc32/v2.50/bin/bin/../../lib/gcc/pic32mx/4.8.3/../../../../pic32mx/lib\libpic32.a(vector9.o)
 .reginfo       0x00000000       0x18 c:/program files/microchip/xc32/v2.50/bin/bin/../../lib/gcc/pic32mx/4.8.3/../../../../pic32mx/lib\libpic32.a(vector10.o)
 .reginfo       0x00000000       0x18 c:/program files/microchip/xc32/v2.50/bin/bin/../../lib/gcc/pic32mx/4.8.3/../../../../pic32mx/lib\libpic32.a(vector11.o)
 .reginfo       0x00000000       0x18 c:/program files/microchip/xc32/v2.50/bin/bin/../../lib/gcc/pic32mx/4.8.3/../../../../pic32mx/lib\libpic32.a(vector12.o)
 .reginfo       0x00000000       0x18 c:/program files/microchip/xc32/v2.50/bin/bin/../../lib/gcc/pic32mx/4.8.3/../../../../pic32mx/lib\libpic32.a(vector13.o)
 .reginfo       0x00000000       0x18 c:/program files/microchip/xc32/v2.50/bin/bin/../../lib/gcc/pic32mx/4.8.3/../../../../pic32mx/lib\libpic32.a(vector14.o)
 .reginfo       0x00000000       0x18 c:/program files/microchip/xc32/v2.50/bin/bin/../../lib/gcc/pic32mx/4.8.3/../../../../pic32mx/lib\libpic32.a(vector15.o)
 .reginfo       0x00000000       0x18 c:/program files/microchip/xc32/v2.50/bin/bin/../../lib/gcc/pic32mx/4.8.3/../../../../pic32mx/lib\libpic32.a(vector16.o)
 .reginfo       0x00000000       0x18 c:/program files/microchip/xc32/v2.50/bin/bin/../../lib/gcc/pic32mx/4.8.3/../../../../pic32mx/lib\libpic32.a(vector17.o)
 .reginfo       0x00000000       0x18 c:/program files/microchip/xc32/v2.50/bin/bin/../../lib/gcc/pic32mx/4.8.3/../../../../pic32mx/lib\libpic32.a(vector18.o)
 .reginfo       0x00000000       0x18 c:/program files/microchip/xc32/v2.50/bin/bin/../../lib/gcc/pic32mx/4.8.3/../../../../pic32mx/lib\libpic32.a(vector19.o)
 .reginfo       0x00000000       0x18 c:/program files/microchip/xc32/v2.50/bin/bin/../../lib/gcc/pic32mx/4.8.3/../../../../pic32mx/lib\libpic32.a(vector20.o)
 .reginfo       0x00000000       0x18 c:/program files/microchip/xc32/v2.50/bin/bin/../../lib/gcc/pic32mx/4.8.3/../../../../pic32mx/lib\libpic32.a(vector21.o)
 .reginfo       0x00000000       0x18 c:/program files/microchip/xc32/v2.50/bin/bin/../../lib/gcc/pic32mx/4.8.3/../../../../pic32mx/lib\libpic32.a(vector22.o)
 .reginfo       0x00000000       0x18 c:/program files/microchip/xc32/v2.50/bin/bin/../../lib/gcc/pic32mx/4.8.3/../../../../pic32mx/lib\libpic32.a(vector23.o)
 .reginfo       0x00000000       0x18 c:/program files/microchip/xc32/v2.50/bin/bin/../../lib/gcc/pic32mx/4.8.3/../../../../pic32mx/lib\libpic32.a(vector24.o)
 .reginfo       0x00000000       0x18 c:/program files/microchip/xc32/v2.50/bin/bin/../../lib/gcc/pic32mx/4.8.3/../../../../pic32mx/lib\libpic32.a(vector25.o)
 .reginfo       0x00000000       0x18 c:/program files/microchip/xc32/v2.50/bin/bin/../../lib/gcc/pic32mx/4.8.3/../../../../pic32mx/lib\libpic32.a(vector26.o)
 .reginfo       0x00000000       0x18 c:/program files/microchip/xc32/v2.50/bin/bin/../../lib/gcc/pic32mx/4.8.3/../../../../pic32mx/lib\libpic32.a(vector27.o)
 .reginfo       0x00000000       0x18 c:/program files/microchip/xc32/v2.50/bin/bin/../../lib/gcc/pic32mx/4.8.3/../../../../pic32mx/lib\libpic32.a(vector28.o)
 .reginfo       0x00000000       0x18 c:/program files/microchip/xc32/v2.50/bin/bin/../../lib/gcc/pic32mx/4.8.3/../../../../pic32mx/lib\libpic32.a(vector29.o)
 .reginfo       0x00000000       0x18 c:/program files/microchip/xc32/v2.50/bin/bin/../../lib/gcc/pic32mx/4.8.3/../../../../pic32mx/lib\libpic32.a(vector30.o)
 .reginfo       0x00000000       0x18 c:/program files/microchip/xc32/v2.50/bin/bin/../../lib/gcc/pic32mx/4.8.3/../../../../pic32mx/lib\libpic32.a(vector31.o)
 .reginfo       0x00000000       0x18 c:/program files/microchip/xc32/v2.50/bin/bin/../../lib/gcc/pic32mx/4.8.3/../../../../pic32mx/lib\libpic32.a(vector32.o)
 .reginfo       0x00000000       0x18 c:/program files/microchip/xc32/v2.50/bin/bin/../../lib/gcc/pic32mx/4.8.3/../../../../pic32mx/lib\libpic32.a(vector33.o)
 .reginfo       0x00000000       0x18 c:/program files/microchip/xc32/v2.50/bin/bin/../../lib/gcc/pic32mx/4.8.3/../../../../pic32mx/lib\libpic32.a(vector34.o)
 .reginfo       0x00000000       0x18 c:/program files/microchip/xc32/v2.50/bin/bin/../../lib/gcc/pic32mx/4.8.3/../../../../pic32mx/lib\libpic32.a(vector35.o)
 .reginfo       0x00000000       0x18 c:/program files/microchip/xc32/v2.50/bin/bin/../../lib/gcc/pic32mx/4.8.3/../../../../pic32mx/lib\libpic32.a(vector36.o)
 .reginfo       0x00000000       0x18 c:/program files/microchip/xc32/v2.50/bin/bin/../../lib/gcc/pic32mx/4.8.3/../../../../pic32mx/lib\libpic32.a(vector37.o)
 .reginfo       0x00000000       0x18 c:/program files/microchip/xc32/v2.50/bin/bin/../../lib/gcc/pic32mx/4.8.3/../../../../pic32mx/lib\libpic32.a(vector38.o)
 .reginfo       0x00000000       0x18 c:/program files/microchip/xc32/v2.50/bin/bin/../../lib/gcc/pic32mx/4.8.3/../../../../pic32mx/lib\libpic32.a(vector39.o)
 .reginfo       0x00000000       0x18 c:/program files/microchip/xc32/v2.50/bin/bin/../../lib/gcc/pic32mx/4.8.3/../../../../pic32mx/lib\libpic32.a(defaultinterrupt.o)
 .reginfo       0x00000000       0x18 c:/program files/microchip/xc32/v2.50/bin/bin/../../lib/gcc/pic32mx/4.8.3/../../../../pic32mx/lib\liblega-c.a(memmove.o)
 .reginfo       0x00000000       0x18 c:/program files/microchip/xc32/v2.50/bin/bin/../../lib/gcc/pic32mx/4.8.3/../../../../pic32mx/lib\liblega-c.a(rand.o)
 .reginfo       0x00000000       0x18 c:/program files/microchip/xc32/v2.50/bin/bin/../../lib/gcc/pic32mx/4.8.3/../../../../pic32mx/lib\liblega-c.a(snprintf_cdnopsuxX.eo)
 .reginfo       0x00000000       0x18 c:/program files/microchip/xc32/v2.50/bin/bin/../../lib/gcc/pic32mx/4.8.3/../../../../pic32mx/lib\liblega-c.a(vsprintf.o)
 .reginfo       0x00000000       0x18 c:/program files/microchip/xc32/v2.50/bin/bin/../../lib/gcc/pic32mx/4.8.3/../../../../pic32mx/lib\liblega-c.a(stubs.o)
 .reginfo       0x00000000       0x18 c:/program files/microchip/xc32/v2.50/bin/bin/../../lib/gcc/pic32mx/4.8.3/../../../../pic32mx/lib\liblega-c.a(_doprnt_cdnopsuxX.eo)
 .reginfo       0x00000000       0x18 c:/program files/microchip/xc32/v2.50/bin/bin/../../lib/gcc/pic32mx/4.8.3/../../../../pic32mx/lib\liblega-c.a(_doprnt.o)
 .reginfo       0x00000000       0x18 c:/program files/microchip/xc32/v2.50/bin/bin/../../lib/gcc/pic32mx/4.8.3/../../../../pic32mx/lib\liblega-c.a(_iobdata.o)
 .reginfo       0x00000000       0x18 c:/program files/microchip/xc32/v2.50/bin/bin/../../lib/gcc/pic32mx/4.8.3/../../../../pic32mx/lib\liblega-c.a(_iobfuncs.o)
 .reginfo       0x00000000       0x18 c:/program files/microchip/xc32/v2.50/bin/bin/../../lib/gcc/pic32mx/4.8.3/../../../../pic32mx/lib\liblega-c.a(_iobstring.o)
 .reginfo       0x00000000       0x18 c:/program files/microchip/xc32/v2.50/bin/bin/../../lib/gcc/pic32mx/4.8.3/../../../../pic32mx/lib\liblega-c.a(fputc.o)
 .reginfo       0x00000000       0x18 c:/program files/microchip/xc32/v2.50/bin/bin/../../lib/gcc/pic32mx/4.8.3/../../../../pic32mx/lib\liblega-c.a(errno.o)
 .reginfo       0x00000000       0x18 c:/program files/microchip/xc32/v2.50/bin/bin/../../lib/gcc/pic32mx/4.8.3/../../../../pic32mx/lib\libm.a(dpmodf.o)
 .reginfo       0x00000000       0x18 c:/program files/microchip/xc32/v2.50/bin/bin/../../lib/gcc/pic32mx/4.8.3/../../../../pic32mx/lib\libm.a(dp32div.o)
 .reginfo       0x00000000       0x18 c:/program files/microchip/xc32/v2.50/bin/bin/../../lib/gcc/pic32mx/4.8.3/../../../../pic32mx/lib\libm.a(dp32mul.o)
 .reginfo       0x00000000       0x18 c:/program files/microchip/xc32/v2.50/bin/bin/../../lib/gcc/pic32mx/4.8.3/../../../../pic32mx/lib\libm.a(dp32subadd.o)
 .reginfo       0x00000000       0x18 c:/program files/microchip/xc32/v2.50/bin/bin/../../lib/gcc/pic32mx/4.8.3/../../../../pic32mx/lib\libm.a(dpcmp.o)
 .reginfo       0x00000000       0x18 c:/program files/microchip/xc32/v2.50/bin/bin/../../lib/gcc/pic32mx/4.8.3/../../../../pic32mx/lib\libm.a(dptoli.o)
 .reginfo       0x00000000       0x18 c:/program files/microchip/xc32/v2.50/bin/bin/../../lib/gcc/pic32mx/4.8.3/../../../../pic32mx/lib\libm.a(litodp.o)
 .reginfo       0x00000000       0x18 c:/program files/microchip/xc32/v2.50/bin/bin/../../lib/gcc/pic32mx/4.8.3\libgcc.a(_umoddi3.o)
 .reginfo       0x00000000       0x18 c:/program files/microchip/xc32/v2.50/bin/bin/../../lib/gcc/pic32mx/4.8.3/../../../../pic32mx/lib\libpic32.a(_mon_getc.o)
 .reginfo       0x00000000       0x18 c:/program files/microchip/xc32/v2.50/bin/bin/../../lib/gcc/pic32mx/4.8.3/../../../../pic32mx/lib\libpic32.a(_mon_write.o)
 .reginfo       0x00000000       0x18 c:/program files/microchip/xc32/v2.50/bin/bin/../../lib/gcc/pic32mx/4.8.3/../../../../pic32mx/lib\libpic32.a(xc32_uart.o)
 .reginfo       0x00000000       0x18 c:/program files/microchip/xc32/v2.50/bin/bin/../../lib/gcc/pic32mx/4.8.3/../../../../pic32mx/lib\libpic32.a(_mon_putc.o)

Memory Configuration

Name             Origin             Length             Attributes
kseg0_data_mem   0x80000000         0x00000200
kseg1_data_mem   0xa0000000         0x00010000         w !x
kseg0_boot_mem   0x9fc00490         0x00000000
kseg1_boot_mem   0xbfc00000         0x00000490
kseg0_program_mem 0x9d000000         0x0003f000         xr
exception_mem    0x9d03f000         0x00001000
debug_exec_mem   0x9fc00490         0x00000760
config3          0xbfc00bf0         0x00000004
config2          0xbfc00bf4         0x00000004
config1          0xbfc00bf8         0x00000004
config0          0xbfc00bfc         0x00000004
sfrs             0xbf800000         0x00100000
configsfrs       0xbfc00bf0         0x00000010
*default*        0x00000000         0xffffffff

Linker script and memory map


reserve_data_0_kseg0
                0x80000000      0x200
                0x80000000        0x2 SHORT 0x0
                0x000001fd                . = 0x1fd
 *fill*         0x80000002      0x1fb 
                0x80000200                . = ALIGN (0x4)
 *fill*         0x800001fd        0x3 

reserve_data_0_kseg1
                0xa0000000      0x200
                0xa0000000        0x2 SHORT 0x0
                0x000001fd                . = 0x1fd
 *fill*         0xa0000002      0x1fb 
                0xa0000200                . = ALIGN (0x4)
 *fill*         0xa00001fd        0x3 

reserve_boot_0x1fc00490_kseg0
                0x9fc00490      0x760
                0x9fc00490        0x2 SHORT 0x0
                0x00000760                . = 0x760
 *fill*         0x9fc00492      0x75e 
                0x9fc00bf0                . = ALIGN (0x4)

reserve_boot_0x1fc00490_kseg1
                0xbfc00490      0x760
                0xbfc00490        0x2 SHORT 0x0
                0x00000760                . = 0x760
 *fill*         0xbfc00492      0x75e 
                0xbfc00bf0                . = ALIGN (0x4)
LOAD c:/program files/microchip/xc32/v2.50/bin/bin/../../lib/gcc/pic32mx/4.8.3/../../../../pic32mx/lib\software-debug-break.o
LOAD build/default/debug/FreeRTOS/Core/event_groups.o
LOAD build/default/debug/FreeRTOS/Core/list.o
LOAD build/default/debug/FreeRTOS/Core/queue.o
LOAD build/default/debug/FreeRTOS/Core/stream_buffer.o
LOAD build/default/debug/FreeRTOS/Core/tasks.o
LOAD build/default/debug/FreeRTOS/Core/timers.o
LOAD build/default/debug/FreeRTOS/Core/portable/MemMang/heap_4.o
LOAD build/default/debug/FreeRTOS/Core/portable/MPLAB/PIC32MX/port.o
LOAD build/default/debug/FreeRTOS/Core/portable/MPLAB/PIC32MX/port_asm.o
LOAD build/default/debug/FreeRTOS/TCPIP/FreeRTOS_ARP.o
LOAD build/default/debug/FreeRTOS/TCPIP/FreeRTOS_DHCP.o
LOAD build/default/debug/FreeRTOS/TCPIP/FreeRTOS_DNS.o
LOAD build/default/debug/FreeRTOS/TCPIP/FreeRTOS_IP.o
LOAD build/default/debug/FreeRTOS/TCPIP/FreeRTOS_Sockets.o
LOAD build/default/debug/FreeRTOS/TCPIP/FreeRTOS_Stream_Buffer.o
LOAD build/default/debug/FreeRTOS/TCPIP/FreeRTOS_TCP_IP.o
LOAD build/default/debug/FreeRTOS/TCPIP/FreeRTOS_TCP_WIN.o
LOAD build/default/debug/FreeRTOS/TCPIP/FreeRTOS_UDP_IP.o
LOAD build/default/debug/FreeRTOS/TCPIP/portable/BufferManagement/BufferAllocation_2.o
LOAD build/default/debug/ConfigPerformance.o
LOAD build/default/debug/LAN9250.o
LOAD build/default/debug/NetworkInterface_LAN9250.o
LOAD build/default/debug/SPI.o
LOAD build/default/debug/UART.o
LOAD build/default/debug/main.o
LOAD build/default/debug/main_blinky.o
LOAD build/default/debug/LED.o
LOAD build/default/debug/FiberComms.o
LOAD build/default/debug/min.o
                0x00000001                __MPLAB_BUILD = 0x1
                0x00000001                __MPLAB_DEBUG = 0x1
                0x00000001                __DEBUG = 0x1
LOAD C:\Users\Thorb\AppData\Local\Temp\ccdgVN5b.o
LOAD C:\Users\Thorb\AppData\Local\Temp\ccDG7xxo.o
LOAD C:\Users\Thorb\AppData\Local\Temp\ccH318PN.o
LOAD c:/program files/microchip/xc32/v2.50/bin/bin/../../lib/gcc/pic32mx/4.8.3/../../../../pic32mx/lib\pic32_software_reset.o
                0x00000400                PROVIDE (_min_stack_size, 0x400)
START GROUP
LOAD c:/program files/microchip/xc32/v2.50/bin/bin/../../lib/gcc/pic32mx/4.8.3/../../../../pic32mx/lib/./proc/32MX270F256B\processor.o
END GROUP
START GROUP
LOAD libmchp_peripheral.a
END GROUP
START GROUP
LOAD libmchp_peripheral_32MX270F256B.a
END GROUP
                0x00000001                PROVIDE (_vector_spacing, 0x1)
                0x9d03f000                PROVIDE (_ebase_address, 0x9d03f000)
                0xbfc00000                _RESET_ADDR = 0xbfc00000
                0xbfc00380                _BEV_EXCPT_ADDR = 0xbfc00380
                0xbfc00480                _DBG_EXCPT_ADDR = 0xbfc00480
                0x9fc00490                _DBG_CODE_ADDR = 0x9fc00490
                0x00000760                _DBG_CODE_SIZE = 0x760
                0x9d03f180                _GEN_EXCPT_ADDR = (_ebase_address + 0x180)

.config_BFC00BF0
                0xbfc00bf0        0x4
 *(.config_BFC00BF0)
 .config_BFC00BF0
                0xbfc00bf0        0x4 build/default/debug/main.o

.config_BFC00BF4
                0xbfc00bf4        0x4
 *(.config_BFC00BF4)
 .config_BFC00BF4
                0xbfc00bf4        0x4 build/default/debug/main.o

.config_BFC00BF8
                0xbfc00bf8        0x4
 *(.config_BFC00BF8)
 .config_BFC00BF8
                0xbfc00bf8        0x4 build/default/debug/main.o

.config_BFC00BFC
                0xbfc00bfc        0x4
 *(.config_BFC00BFC)
 .config_BFC00BFC
                0xbfc00bfc        0x4 build/default/debug/main.o
                0xbfc02000                PROVIDE (_DBG_CODE_ADDR, 0xbfc02000)
                0x00000ff0                PROVIDE (_DBG_CODE_SIZE, 0xff0)

.reset          0xbfc00000      0x178
 *(.reset)
 .reset         0xbfc00000        0x8 C:\Users\Thorb\AppData\Local\Temp\ccdgVN5b.o
                0xbfc00000                _reset
 *(.reset.startup)
 .reset.startup
                0xbfc00008      0x170 C:\Users\Thorb\AppData\Local\Temp\ccdgVN5b.o
                0xbfc00008                _startup

.bev_excpt      0xbfc00380       0x10
 *(.bev_handler)
 .bev_handler   0xbfc00380       0x10 C:\Users\Thorb\AppData\Local\Temp\ccdgVN5b.o

.dbg_excpt      0xbfc00480        0x0
                0xbfc00480                . = (. + DEFINED (_DEBUGGER)?0x8:0x0)

.dbg_code       0x9fc00490        0x0
                0x9fc00490                . = (. + DEFINED (_DEBUGGER)?_DBG_CODE_SIZE:0x0)

.app_excpt      0x9d03f180       0x10
 *(.gen_handler)
 .gen_handler   0x9d03f180       0x10 C:\Users\Thorb\AppData\Local\Temp\ccdgVN5b.o

.vector_0       0x9d03f200        0x8
 *(.vector_0)
 .vector_0      0x9d03f200        0x8 c:/program files/microchip/xc32/v2.50/bin/bin/../../lib/gcc/pic32mx/4.8.3/../../../../pic32mx/lib\libpic32.a(vector0.o)
                0x9d03f200                __vector_dispatch_0
                0x00000001                ASSERT (((_vector_spacing == 0x0) || (SIZEOF (.vector_0) <= (_vector_spacing << 0x5))), function at exception vector 0 too large)

.vector_1       0x9d03f220        0x8
 *(.vector_1)
 .vector_1      0x9d03f220        0x8 build/default/debug/FreeRTOS/Core/portable/MPLAB/PIC32MX/port.o
                0x9d03f220                __vector_dispatch_1
                0x00000001                ASSERT (((_vector_spacing == 0x0) || (SIZEOF (.vector_1) <= (_vector_spacing << 0x5))), function at exception vector 1 too large)

.vector_2       0x9d03f240        0x8
 *(.vector_2)
 .vector_2      0x9d03f240        0x8 c:/program files/microchip/xc32/v2.50/bin/bin/../../lib/gcc/pic32mx/4.8.3/../../../../pic32mx/lib\libpic32.a(vector2.o)
                0x9d03f240                __vector_dispatch_2
                0x00000001                ASSERT (((_vector_spacing == 0x0) || (SIZEOF (.vector_2) <= (_vector_spacing << 0x5))), function at exception vector 2 too large)

.vector_3       0x9d03f260        0x8
 *(.vector_3)
 .vector_3      0x9d03f260        0x8 c:/program files/microchip/xc32/v2.50/bin/bin/../../lib/gcc/pic32mx/4.8.3/../../../../pic32mx/lib\libpic32.a(vector3.o)
                0x9d03f260                __vector_dispatch_3
                0x00000001                ASSERT (((_vector_spacing == 0x0) || (SIZEOF (.vector_3) <= (_vector_spacing << 0x5))), function at exception vector 3 too large)

.vector_4       0x9d03f280        0x8
 *(.vector_4)
 .vector_4      0x9d03f280        0x8 build/default/debug/FreeRTOS/Core/portable/MPLAB/PIC32MX/port.o
                0x9d03f280                __vector_dispatch_4
                0x00000001                ASSERT (((_vector_spacing == 0x0) || (SIZEOF (.vector_4) <= (_vector_spacing << 0x5))), function at exception vector 4 too large)

.vector_5       0x9d03f2a0        0x8
 *(.vector_5)
 .vector_5      0x9d03f2a0        0x8 c:/program files/microchip/xc32/v2.50/bin/bin/../../lib/gcc/pic32mx/4.8.3/../../../../pic32mx/lib\libpic32.a(vector5.o)
                0x9d03f2a0                __vector_dispatch_5
                0x00000001                ASSERT (((_vector_spacing == 0x0) || (SIZEOF (.vector_5) <= (_vector_spacing << 0x5))), function at exception vector 5 too large)

.vector_6       0x9d03f2c0        0x8
 *(.vector_6)
 .vector_6      0x9d03f2c0        0x8 c:/program files/microchip/xc32/v2.50/bin/bin/../../lib/gcc/pic32mx/4.8.3/../../../../pic32mx/lib\libpic32.a(vector6.o)
                0x9d03f2c0                __vector_dispatch_6
                0x00000001                ASSERT (((_vector_spacing == 0x0) || (SIZEOF (.vector_6) <= (_vector_spacing << 0x5))), function at exception vector 6 too large)

.vector_7       0x9d03f2e0        0x8
 *(.vector_7)
 .vector_7      0x9d03f2e0        0x8 c:/program files/microchip/xc32/v2.50/bin/bin/../../lib/gcc/pic32mx/4.8.3/../../../../pic32mx/lib\libpic32.a(vector7.o)
                0x9d03f2e0                __vector_dispatch_7
                0x00000001                ASSERT (((_vector_spacing == 0x0) || (SIZEOF (.vector_7) <= (_vector_spacing << 0x5))), function at exception vector 7 too large)

.vector_8       0x9d03f300        0x8
 *(.vector_8)
 .vector_8      0x9d03f300        0x8 c:/program files/microchip/xc32/v2.50/bin/bin/../../lib/gcc/pic32mx/4.8.3/../../../../pic32mx/lib\libpic32.a(vector8.o)
                0x9d03f300                __vector_dispatch_8
                0x00000001                ASSERT (((_vector_spacing == 0x0) || (SIZEOF (.vector_8) <= (_vector_spacing << 0x5))), function at exception vector 8 too large)

.vector_9       0x9d03f320        0x8
 *(.vector_9)
 .vector_9      0x9d03f320        0x8 c:/program files/microchip/xc32/v2.50/bin/bin/../../lib/gcc/pic32mx/4.8.3/../../../../pic32mx/lib\libpic32.a(vector9.o)
                0x9d03f320                __vector_dispatch_9
                0x00000001                ASSERT (((_vector_spacing == 0x0) || (SIZEOF (.vector_9) <= (_vector_spacing << 0x5))), function at exception vector 9 too large)

.vector_10      0x9d03f340        0x8
 *(.vector_10)
 .vector_10     0x9d03f340        0x8 c:/program files/microchip/xc32/v2.50/bin/bin/../../lib/gcc/pic32mx/4.8.3/../../../../pic32mx/lib\libpic32.a(vector10.o)
                0x9d03f340                __vector_dispatch_10
                0x00000001                ASSERT (((_vector_spacing == 0x0) || (SIZEOF (.vector_10) <= (_vector_spacing << 0x5))), function at exception vector 10 too large)

.vector_11      0x9d03f360        0x8
 *(.vector_11)
 .vector_11     0x9d03f360        0x8 c:/program files/microchip/xc32/v2.50/bin/bin/../../lib/gcc/pic32mx/4.8.3/../../../../pic32mx/lib\libpic32.a(vector11.o)
                0x9d03f360                __vector_dispatch_11
                0x00000001                ASSERT (((_vector_spacing == 0x0) || (SIZEOF (.vector_11) <= (_vector_spacing << 0x5))), function at exception vector 11 too large)

.vector_12      0x9d03f380        0x8
 *(.vector_12)
 .vector_12     0x9d03f380        0x8 c:/program files/microchip/xc32/v2.50/bin/bin/../../lib/gcc/pic32mx/4.8.3/../../../../pic32mx/lib\libpic32.a(vector12.o)
                0x9d03f380                __vector_dispatch_12
                0x00000001                ASSERT (((_vector_spacing == 0x0) || (SIZEOF (.vector_12) <= (_vector_spacing << 0x5))), function at exception vector 12 too large)

.vector_13      0x9d03f3a0        0x8
 *(.vector_13)
 .vector_13     0x9d03f3a0        0x8 c:/program files/microchip/xc32/v2.50/bin/bin/../../lib/gcc/pic32mx/4.8.3/../../../../pic32mx/lib\libpic32.a(vector13.o)
                0x9d03f3a0                __vector_dispatch_13
                0x00000001                ASSERT (((_vector_spacing == 0x0) || (SIZEOF (.vector_13) <= (_vector_spacing << 0x5))), function at exception vector 13 too large)

.vector_14      0x9d03f3c0        0x8
 *(.vector_14)
 .vector_14     0x9d03f3c0        0x8 c:/program files/microchip/xc32/v2.50/bin/bin/../../lib/gcc/pic32mx/4.8.3/../../../../pic32mx/lib\libpic32.a(vector14.o)
                0x9d03f3c0                __vector_dispatch_14
                0x00000001                ASSERT (((_vector_spacing == 0x0) || (SIZEOF (.vector_14) <= (_vector_spacing << 0x5))), function at exception vector 14 too large)

.vector_15      0x9d03f3e0        0x8
 *(.vector_15)
 .vector_15     0x9d03f3e0        0x8 c:/program files/microchip/xc32/v2.50/bin/bin/../../lib/gcc/pic32mx/4.8.3/../../../../pic32mx/lib\libpic32.a(vector15.o)
                0x9d03f3e0                __vector_dispatch_15
                0x00000001                ASSERT (((_vector_spacing == 0x0) || (SIZEOF (.vector_15) <= (_vector_spacing << 0x5))), function at exception vector 15 too large)

.vector_16      0x9d03f400        0x8
 *(.vector_16)
 .vector_16     0x9d03f400        0x8 c:/program files/microchip/xc32/v2.50/bin/bin/../../lib/gcc/pic32mx/4.8.3/../../../../pic32mx/lib\libpic32.a(vector16.o)
                0x9d03f400                __vector_dispatch_16
                0x00000001                ASSERT (((_vector_spacing == 0x0) || (SIZEOF (.vector_16) <= (_vector_spacing << 0x5))), function at exception vector 16 too large)

.vector_17      0x9d03f420        0x8
 *(.vector_17)
 .vector_17     0x9d03f420        0x8 c:/program files/microchip/xc32/v2.50/bin/bin/../../lib/gcc/pic32mx/4.8.3/../../../../pic32mx/lib\libpic32.a(vector17.o)
                0x9d03f420                __vector_dispatch_17
                0x00000001                ASSERT (((_vector_spacing == 0x0) || (SIZEOF (.vector_17) <= (_vector_spacing << 0x5))), function at exception vector 17 too large)

.vector_18      0x9d03f440        0x8
 *(.vector_18)
 .vector_18     0x9d03f440        0x8 c:/program files/microchip/xc32/v2.50/bin/bin/../../lib/gcc/pic32mx/4.8.3/../../../../pic32mx/lib\libpic32.a(vector18.o)
                0x9d03f440                __vector_dispatch_18
                0x00000001                ASSERT (((_vector_spacing == 0x0) || (SIZEOF (.vector_18) <= (_vector_spacing << 0x5))), function at exception vector 18 too large)

.vector_19      0x9d03f460        0x8
 *(.vector_19)
 .vector_19     0x9d03f460        0x8 c:/program files/microchip/xc32/v2.50/bin/bin/../../lib/gcc/pic32mx/4.8.3/../../../../pic32mx/lib\libpic32.a(vector19.o)
                0x9d03f460                __vector_dispatch_19
                0x00000001                ASSERT (((_vector_spacing == 0x0) || (SIZEOF (.vector_19) <= (_vector_spacing << 0x5))), function at exception vector 19 too large)

.vector_20      0x9d03f480        0x8
 *(.vector_20)
 .vector_20     0x9d03f480        0x8 c:/program files/microchip/xc32/v2.50/bin/bin/../../lib/gcc/pic32mx/4.8.3/../../../../pic32mx/lib\libpic32.a(vector20.o)
                0x9d03f480                __vector_dispatch_20
                0x00000001                ASSERT (((_vector_spacing == 0x0) || (SIZEOF (.vector_20) <= (_vector_spacing << 0x5))), function at exception vector 20 too large)

.vector_21      0x9d03f4a0        0x8
 *(.vector_21)
 .vector_21     0x9d03f4a0        0x8 c:/program files/microchip/xc32/v2.50/bin/bin/../../lib/gcc/pic32mx/4.8.3/../../../../pic32mx/lib\libpic32.a(vector21.o)
                0x9d03f4a0                __vector_dispatch_21
                0x00000001                ASSERT (((_vector_spacing == 0x0) || (SIZEOF (.vector_21) <= (_vector_spacing << 0x5))), function at exception vector 21 too large)

.vector_22      0x9d03f4c0        0x8
 *(.vector_22)
 .vector_22     0x9d03f4c0        0x8 c:/program files/microchip/xc32/v2.50/bin/bin/../../lib/gcc/pic32mx/4.8.3/../../../../pic32mx/lib\libpic32.a(vector22.o)
                0x9d03f4c0                __vector_dispatch_22
                0x00000001                ASSERT (((_vector_spacing == 0x0) || (SIZEOF (.vector_22) <= (_vector_spacing << 0x5))), function at exception vector 22 too large)

.vector_23      0x9d03f4e0        0x8
 *(.vector_23)
 .vector_23     0x9d03f4e0        0x8 c:/program files/microchip/xc32/v2.50/bin/bin/../../lib/gcc/pic32mx/4.8.3/../../../../pic32mx/lib\libpic32.a(vector23.o)
                0x9d03f4e0                __vector_dispatch_23
                0x00000001                ASSERT (((_vector_spacing == 0x0) || (SIZEOF (.vector_23) <= (_vector_spacing << 0x5))), function at exception vector 23 too large)

.vector_24      0x9d03f500        0x8
 *(.vector_24)
 .vector_24     0x9d03f500        0x8 c:/program files/microchip/xc32/v2.50/bin/bin/../../lib/gcc/pic32mx/4.8.3/../../../../pic32mx/lib\libpic32.a(vector24.o)
                0x9d03f500                __vector_dispatch_24
                0x00000001                ASSERT (((_vector_spacing == 0x0) || (SIZEOF (.vector_24) <= (_vector_spacing << 0x5))), function at exception vector 24 too large)

.vector_25      0x9d03f520        0x8
 *(.vector_25)
 .vector_25     0x9d03f520        0x8 c:/program files/microchip/xc32/v2.50/bin/bin/../../lib/gcc/pic32mx/4.8.3/../../../../pic32mx/lib\libpic32.a(vector25.o)
                0x9d03f520                __vector_dispatch_25
                0x00000001                ASSERT (((_vector_spacing == 0x0) || (SIZEOF (.vector_25) <= (_vector_spacing << 0x5))), function at exception vector 25 too large)

.vector_26      0x9d03f540        0x8
 *(.vector_26)
 .vector_26     0x9d03f540        0x8 c:/program files/microchip/xc32/v2.50/bin/bin/../../lib/gcc/pic32mx/4.8.3/../../../../pic32mx/lib\libpic32.a(vector26.o)
                0x9d03f540                __vector_dispatch_26
                0x00000001                ASSERT (((_vector_spacing == 0x0) || (SIZEOF (.vector_26) <= (_vector_spacing << 0x5))), function at exception vector 26 too large)

.vector_27      0x9d03f560        0x8
 *(.vector_27)
 .vector_27     0x9d03f560        0x8 c:/program files/microchip/xc32/v2.50/bin/bin/../../lib/gcc/pic32mx/4.8.3/../../../../pic32mx/lib\libpic32.a(vector27.o)
                0x9d03f560                __vector_dispatch_27
                0x00000001                ASSERT (((_vector_spacing == 0x0) || (SIZEOF (.vector_27) <= (_vector_spacing << 0x5))), function at exception vector 27 too large)

.vector_28      0x9d03f580        0x8
 *(.vector_28)
 .vector_28     0x9d03f580        0x8 c:/program files/microchip/xc32/v2.50/bin/bin/../../lib/gcc/pic32mx/4.8.3/../../../../pic32mx/lib\libpic32.a(vector28.o)
                0x9d03f580                __vector_dispatch_28
                0x00000001                ASSERT (((_vector_spacing == 0x0) || (SIZEOF (.vector_28) <= (_vector_spacing << 0x5))), function at exception vector 28 too large)

.vector_29      0x9d03f5a0        0x8
 *(.vector_29)
 .vector_29     0x9d03f5a0        0x8 c:/program files/microchip/xc32/v2.50/bin/bin/../../lib/gcc/pic32mx/4.8.3/../../../../pic32mx/lib\libpic32.a(vector29.o)
                0x9d03f5a0                __vector_dispatch_29
                0x00000001                ASSERT (((_vector_spacing == 0x0) || (SIZEOF (.vector_29) <= (_vector_spacing << 0x5))), function at exception vector 29 too large)

.vector_30      0x9d03f5c0        0x8
 *(.vector_30)
 .vector_30     0x9d03f5c0        0x8 c:/program files/microchip/xc32/v2.50/bin/bin/../../lib/gcc/pic32mx/4.8.3/../../../../pic32mx/lib\libpic32.a(vector30.o)
                0x9d03f5c0                __vector_dispatch_30
                0x00000001                ASSERT (((_vector_spacing == 0x0) || (SIZEOF (.vector_30) <= (_vector_spacing << 0x5))), function at exception vector 30 too large)

.vector_31      0x9d03f5e0        0x8
 *(.vector_31)
 .vector_31     0x9d03f5e0        0x8 c:/program files/microchip/xc32/v2.50/bin/bin/../../lib/gcc/pic32mx/4.8.3/../../../../pic32mx/lib\libpic32.a(vector31.o)
                0x9d03f5e0                __vector_dispatch_31
                0x00000001                ASSERT (((_vector_spacing == 0x0) || (SIZEOF (.vector_31) <= (_vector_spacing << 0x5))), function at exception vector 31 too large)

.vector_32      0x9d03f600        0x8
 *(.vector_32)
 .vector_32     0x9d03f600        0x8 c:/program files/microchip/xc32/v2.50/bin/bin/../../lib/gcc/pic32mx/4.8.3/../../../../pic32mx/lib\libpic32.a(vector32.o)
                0x9d03f600                __vector_dispatch_32
                0x00000001                ASSERT (((_vector_spacing == 0x0) || (SIZEOF (.vector_32) <= (_vector_spacing << 0x5))), function at exception vector 32 too large)

.vector_33      0x9d03f620        0x8
 *(.vector_33)
 .vector_33     0x9d03f620        0x8 c:/program files/microchip/xc32/v2.50/bin/bin/../../lib/gcc/pic32mx/4.8.3/../../../../pic32mx/lib\libpic32.a(vector33.o)
                0x9d03f620                __vector_dispatch_33
                0x00000001                ASSERT (((_vector_spacing == 0x0) || (SIZEOF (.vector_33) <= (_vector_spacing << 0x5))), function at exception vector 33 too large)

.vector_34      0x9d03f640        0x8
 *(.vector_34)
 .vector_34     0x9d03f640        0x8 c:/program files/microchip/xc32/v2.50/bin/bin/../../lib/gcc/pic32mx/4.8.3/../../../../pic32mx/lib\libpic32.a(vector34.o)
                0x9d03f640                __vector_dispatch_34
                0x00000001                ASSERT (((_vector_spacing == 0x0) || (SIZEOF (.vector_34) <= (_vector_spacing << 0x5))), function at exception vector 34 too large)

.vector_35      0x9d03f660        0x8
 *(.vector_35)
 .vector_35     0x9d03f660        0x8 c:/program files/microchip/xc32/v2.50/bin/bin/../../lib/gcc/pic32mx/4.8.3/../../../../pic32mx/lib\libpic32.a(vector35.o)
                0x9d03f660                __vector_dispatch_35
                0x00000001                ASSERT (((_vector_spacing == 0x0) || (SIZEOF (.vector_35) <= (_vector_spacing << 0x5))), function at exception vector 35 too large)

.vector_36      0x9d03f680        0x8
 *(.vector_36)
 .vector_36     0x9d03f680        0x8 c:/program files/microchip/xc32/v2.50/bin/bin/../../lib/gcc/pic32mx/4.8.3/../../../../pic32mx/lib\libpic32.a(vector36.o)
                0x9d03f680                __vector_dispatch_36
                0x00000001                ASSERT (((_vector_spacing == 0x0) || (SIZEOF (.vector_36) <= (_vector_spacing << 0x5))), function at exception vector 36 too large)

.vector_37      0x9d03f6a0        0x8
 *(.vector_37)
 .vector_37     0x9d03f6a0        0x8 c:/program files/microchip/xc32/v2.50/bin/bin/../../lib/gcc/pic32mx/4.8.3/../../../../pic32mx/lib\libpic32.a(vector37.o)
                0x9d03f6a0                __vector_dispatch_37
                0x00000001                ASSERT (((_vector_spacing == 0x0) || (SIZEOF (.vector_37) <= (_vector_spacing << 0x5))), function at exception vector 37 too large)

.vector_38      0x9d03f6c0        0x8
 *(.vector_38)
 .vector_38     0x9d03f6c0        0x8 c:/program files/microchip/xc32/v2.50/bin/bin/../../lib/gcc/pic32mx/4.8.3/../../../../pic32mx/lib\libpic32.a(vector38.o)
                0x9d03f6c0                __vector_dispatch_38
                0x00000001                ASSERT (((_vector_spacing == 0x0) || (SIZEOF (.vector_38) <= (_vector_spacing << 0x5))), function at exception vector 38 too large)

.vector_39      0x9d03f6e0        0x8
 *(.vector_39)
 .vector_39     0x9d03f6e0        0x8 c:/program files/microchip/xc32/v2.50/bin/bin/../../lib/gcc/pic32mx/4.8.3/../../../../pic32mx/lib\libpic32.a(vector39.o)
                0x9d03f6e0                __vector_dispatch_39
                0x00000001                ASSERT (((_vector_spacing == 0x0) || (SIZEOF (.vector_39) <= (_vector_spacing << 0x5))), function at exception vector 39 too large)

.vector_40      0x9d03f700        0x8
 *(.vector_40)
 .vector_40     0x9d03f700        0x8 build/default/debug/LAN9250.o
                0x9d03f700                __vector_dispatch_40
                0x00000001                ASSERT (((_vector_spacing == 0x0) || (SIZEOF (.vector_40) <= (_vector_spacing << 0x5))), function at exception vector 40 too large)

.vector_41      0x9d03f720        0x8
 *(.vector_41)
 .vector_41     0x9d03f720        0x8 build/default/debug/LAN9250.o
                0x9d03f720                __vector_dispatch_41
                0x00000001                ASSERT (((_vector_spacing == 0x0) || (SIZEOF (.vector_41) <= (_vector_spacing << 0x5))), function at exception vector 41 too large)

.vector_42      0x9d03f740        0x8
 *(.vector_42)
 .vector_42     0x9d03f740        0x8 build/default/debug/UART.o
                0x9d03f740                __vector_dispatch_42
                0x00000001                ASSERT (((_vector_spacing == 0x0) || (SIZEOF (.vector_42) <= (_vector_spacing << 0x5))), function at exception vector 42 too large)

.vector_43      0x9d03f760        0x8
 *(.vector_43)
 .vector_43     0x9d03f760        0x8 build/default/debug/UART.o
                0x9d03f760                __vector_dispatch_43
                0x00000001                ASSERT (((_vector_spacing == 0x0) || (SIZEOF (.vector_43) <= (_vector_spacing << 0x5))), function at exception vector 43 too large)

.vector_44      0x9d03f780        0x0
 *(.vector_44)
                0x00000001                ASSERT (((_vector_spacing == 0x0) || (SIZEOF (.vector_44) <= (_vector_spacing << 0x5))), function at exception vector 44 too large)

.vector_45      0x9d03f7a0        0x0
 *(.vector_45)
                0x00000001                ASSERT (((_vector_spacing == 0x0) || (SIZEOF (.vector_45) <= (_vector_spacing << 0x5))), function at exception vector 45 too large)

.vector_46      0x9d03f7c0        0x0
 *(.vector_46)
                0x00000001                ASSERT (((_vector_spacing == 0x0) || (SIZEOF (.vector_46) <= (_vector_spacing << 0x5))), function at exception vector 46 too large)

.vector_47      0x9d03f7e0        0x0
 *(.vector_47)
                0x00000001                ASSERT (((_vector_spacing == 0x0) || (SIZEOF (.vector_47) <= (_vector_spacing << 0x5))), function at exception vector 47 too large)

.vector_48      0x9d03f800        0x0
 *(.vector_48)
                0x00000001                ASSERT (((_vector_spacing == 0x0) || (SIZEOF (.vector_48) <= (_vector_spacing << 0x5))), function at exception vector 48 too large)

.vector_49      0x9d03f820        0x0
 *(.vector_49)
                0x00000001                ASSERT (((_vector_spacing == 0x0) || (SIZEOF (.vector_49) <= (_vector_spacing << 0x5))), function at exception vector 49 too large)

.vector_50      0x9d03f840        0x0
 *(.vector_50)
                0x00000001                ASSERT (((_vector_spacing == 0x0) || (SIZEOF (.vector_50) <= (_vector_spacing << 0x5))), function at exception vector 50 too large)

.vector_51      0x9d03f860        0x0
 *(.vector_51)
                0x00000001                ASSERT (((_vector_spacing == 0x0) || (SIZEOF (.vector_51) <= (_vector_spacing << 0x5))), function at exception vector 51 too large)

.vector_52      0x9d03f880        0x0
 *(.vector_52)
                0x00000001                ASSERT (((_vector_spacing == 0x0) || (SIZEOF (.vector_52) <= (_vector_spacing << 0x5))), function at exception vector 52 too large)

.vector_53      0x9d03f8a0        0x0
 *(.vector_53)
                0x00000001                ASSERT (((_vector_spacing == 0x0) || (SIZEOF (.vector_53) <= (_vector_spacing << 0x5))), function at exception vector 53 too large)

.vector_54      0x9d03f8c0        0x0
 *(.vector_54)
                0x00000001                ASSERT (((_vector_spacing == 0x0) || (SIZEOF (.vector_54) <= (_vector_spacing << 0x5))), function at exception vector 54 too large)

.vector_55      0x9d03f8e0        0x0
 *(.vector_55)
                0x00000001                ASSERT (((_vector_spacing == 0x0) || (SIZEOF (.vector_55) <= (_vector_spacing << 0x5))), function at exception vector 55 too large)

.vector_56      0x9d03f900        0x0
 *(.vector_56)
                0x00000001                ASSERT (((_vector_spacing == 0x0) || (SIZEOF (.vector_56) <= (_vector_spacing << 0x5))), function at exception vector 56 too large)

.vector_57      0x9d03f920        0x0
 *(.vector_57)
                0x00000001                ASSERT (((_vector_spacing == 0x0) || (SIZEOF (.vector_57) <= (_vector_spacing << 0x5))), function at exception vector 57 too large)

.vector_58      0x9d03f940        0x0
 *(.vector_58)
                0x00000001                ASSERT (((_vector_spacing == 0x0) || (SIZEOF (.vector_58) <= (_vector_spacing << 0x5))), function at exception vector 58 too large)

.vector_59      0x9d03f960        0x0
 *(.vector_59)
                0x00000001                ASSERT (((_vector_spacing == 0x0) || (SIZEOF (.vector_59) <= (_vector_spacing << 0x5))), function at exception vector 59 too large)

.vector_60      0x9d03f980        0x0
 *(.vector_60)
                0x00000001                ASSERT (((_vector_spacing == 0x0) || (SIZEOF (.vector_60) <= (_vector_spacing << 0x5))), function at exception vector 60 too large)

.vector_61      0x9d03f9a0        0x0
 *(.vector_61)
                0x00000001                ASSERT (((_vector_spacing == 0x0) || (SIZEOF (.vector_61) <= (_vector_spacing << 0x5))), function at exception vector 61 too large)

.vector_62      0x9d03f9c0        0x0
 *(.vector_62)
                0x00000001                ASSERT (((_vector_spacing == 0x0) || (SIZEOF (.vector_62) <= (_vector_spacing << 0x5))), function at exception vector 62 too large)

.vector_63      0x9d03f9e0        0x0
 *(.vector_63)
                0x00000001                ASSERT (((_vector_spacing == 0x0) || (SIZEOF (.vector_63) <= (_vector_spacing << 0x5))), function at exception vector 63 too large)

.startup
 *(.startup)

.text           0x9d000000        0x0
 *(.stub .gnu.linkonce.t.*)
 *(.text.*personality*)
 *(.mips16.fn.*)
 *(.mips16.call.*)
 *(.gnu.warning)
                0x9d000000                . = ALIGN (0x4)

.init           0x9d000000        0x0
 *crti.o(.init)
 *crtbegin.o(.init)
 *(EXCLUDE_FILE(*crtn.o *crtend?.o *crtend.o) .init)
 *crtend.o(.init)
 *crtn.o(.init)
                0x9d000000                . = ALIGN (0x4)

.fini           0x9d000000        0x0
 *(.fini)
                0x9d000000                . = ALIGN (0x4)

.preinit_array  0x9d000000        0x0
                0x9d000000                PROVIDE (__preinit_array_start, .)
 *(.preinit_array)
                0x9d000000                PROVIDE (__preinit_array_end, .)
                0x9d000000                . = ALIGN (0x4)

.init_array     0x9d000000        0x0
                0x9d000000                PROVIDE (__init_array_start, .)
 *(SORT(.init_array.*))
 *(.init_array)
                0x9d000000                PROVIDE (__init_array_end, .)
                0x9d000000                . = ALIGN (0x4)

.fini_array     0x9d000000        0x0
                0x9d000000                PROVIDE (__fini_array_start, .)
 *(SORT(.fini_array.*))
 *(.fini_array)
                0x9d000000                PROVIDE (__fini_array_end, .)
                0x9d000000                . = ALIGN (0x4)

.ctors          0x9d000000        0x0
 *crtbegin.o(.ctors)
 *crtbegin?.o(.ctors)
 *(EXCLUDE_FILE(*crtend?.o *crtend.o) .ctors)
 *(SORT(.ctors.*))
 *(.ctors)
                0x9d000000                . = ALIGN (0x4)

.dtors          0x9d000000        0x0
 *crtbegin.o(.dtors)
 *crtbegin?.o(.dtors)
 *(EXCLUDE_FILE(*crtend?.o *crtend.o) .dtors)
 *(SORT(.dtors.*))
 *(.dtors)
                0x9d000000                . = ALIGN (0x4)

.rodata         0x9d000000        0x0
 *(.gnu.linkonce.r.*)
 *(.rodata1)
                0x9d000000                . = ALIGN (0x4)

.sdata2         0x9fc00490        0x0
 *(.sdata2 .sdata2.* .gnu.linkonce.s2.*)
                0x9fc00490                . = ALIGN (0x4)

.sbss2          0x9fc00490        0x0
 *(.sbss2 .sbss2.* .gnu.linkonce.sb2.*)
                0x9fc00490                . = ALIGN (0x4)

.eh_frame_hdr
 *(.eh_frame_hdr)
                0x9fc00490                . = ALIGN (0x4)

.eh_frame
 *(.eh_frame)
                0x9fc00490                . = ALIGN (0x4)

.gcc_except_table
 *(.gcc_except_table .gcc_except_table.*)
                0x9fc00490                . = ALIGN (0x4)

.dbg_data       0xa0000200        0x0
                0xa0000200                . = (. + DEFINED (_DEBUGGER)?0x200:0x0)

.jcr            0xa0000200        0x0
 *(.jcr)
                0xa0000200                . = ALIGN (0x4)

.eh_frame
 *(.eh_frame)
                0xa0000200                . = ALIGN (0x4)

.gcc_except_table
 *(.gcc_except_table .gcc_except_table.*)
                0xa0000200                . = ALIGN (0x4)

.persist        0xa0000200        0x0
                0xa0000200                _persist_begin = .
 *(.persist .persist.*)
 *(.pbss .pbss.*)
                0xa0000200                . = ALIGN (0x4)
                0xa0000200                _persist_end = .

.data           0xa0000200        0x0
 *(.gnu.linkonce.d.*)
 *(.data1)
                0xa0000200                . = ALIGN (0x4)
                0xa0000200                . = .
                0xa00081f0                _gp = (ALIGN (0x10) + 0x7ff0)

.got            0xa0000200        0x0
 *(.got.plt)
 *(.got)
                0xa0000200                . = ALIGN (0x4)

.sdata          0xa0000200       0x18
                0xa0000200                _sdata_begin = .
 *(.sdata .sdata.* .gnu.linkonce.s.*)
 .sdata         0xa0000200        0x4 build/default/debug/FreeRTOS/Core/portable/MPLAB/PIC32MX/port.o
                0xa0000200                uxInterruptNesting
 .sdata         0xa0000204        0x4 build/default/debug/FreeRTOS/TCPIP/FreeRTOS_IP.o
 .sdata         0xa0000208        0x4 build/default/debug/FreeRTOS/TCPIP/FreeRTOS_TCP_WIN.o
 .sdata         0xa000020c        0x4 build/default/debug/LED.o
                0xa000020c                ethError
 .sdata         0xa0000210        0x4 c:/program files/microchip/xc32/v2.50/bin/bin/../../lib/gcc/pic32mx/4.8.3/../../../../pic32mx/lib\liblega-c.a(_iobdata.o)
                0xa0000210                _libc_data
 .sdata         0xa0000214        0x4 c:/program files/microchip/xc32/v2.50/bin/bin/../../lib/gcc/pic32mx/4.8.3/../../../../pic32mx/lib\libpic32.a(xc32_uart.o)
                0xa0000214                __XC_UART
                0xa0000218                . = ALIGN (0x4)
                0xa0000218                _sdata_end = .

.lit8
 *(.lit8)

.lit4
 *(.lit4)
                0xa0000218                . = ALIGN (0x4)
                0xa0000218                _data_end = .
                0xa0000218                _bss_begin = .

.sbss           0xa0000218      0x130
                0xa0000218                _sbss_begin = .
 *(.dynsbss)
 *(.sbss .sbss.* .gnu.linkonce.sb.*)
 .sbss          0xa0000218       0x34 build/default/debug/FreeRTOS/Core/tasks.o
                0xa0000218                pxCurrentTCB
                0xa000021c                uxDeletedTasksWaitingCleanUp
                0xa0000220                uxCurrentNumberOfTasks
                0xa0000224                xTickCount
                0xa0000228                uxTopReadyPriority
                0xa000022c                xSchedulerRunning
                0xa0000230                xPendedTicks
                0xa0000234                xYieldPending
                0xa0000238                xNumOfOverflows
                0xa000023c                uxTaskNumber
                0xa0000240                xNextTaskUnblockTime
                0xa0000244                xIdleTaskHandle
                0xa0000248                uxSchedulerSuspended
 .sbss          0xa000024c       0x14 build/default/debug/FreeRTOS/Core/timers.o
 .sbss          0xa0000260       0x20 build/default/debug/FreeRTOS/Core/portable/MemMang/heap_4.o
 .sbss          0xa0000280        0x4 build/default/debug/FreeRTOS/Core/portable/MPLAB/PIC32MX/port.o
                0xa0000280                uxSavedTaskStackPointer
 .sbss          0xa0000284        0x4 build/default/debug/FreeRTOS/TCPIP/FreeRTOS_ARP.o
 .sbss          0xa0000288        0x4 build/default/debug/FreeRTOS/TCPIP/FreeRTOS_DHCP.o
 .sbss          0xa000028c        0x4 build/default/debug/FreeRTOS/TCPIP/FreeRTOS_DNS.o
 .sbss          0xa0000290       0x28 build/default/debug/FreeRTOS/TCPIP/FreeRTOS_IP.o
                0xa0000290                xNetworkEventQueue
                0xa0000294                usPacketIdentifier
 .sbss          0xa00002b8        0x4 build/default/debug/FreeRTOS/TCPIP/FreeRTOS_Sockets.o
 .sbss          0xa00002bc        0x8 build/default/debug/FreeRTOS/TCPIP/FreeRTOS_TCP_WIN.o
                0xa00002c0                xTCPWindowLoggingLevel
 .sbss          0xa00002c4        0x8 build/default/debug/FreeRTOS/TCPIP/portable/BufferManagement/BufferAllocation_2.o
 .sbss          0xa00002cc       0x10 build/default/debug/LAN9250.o
                0xa00002d0                packetCount
                0xa00002d4                linkState
                0xa00002d8                linkCheckDivider
 .sbss          0xa00002dc        0x4 build/default/debug/NetworkInterface_LAN9250.o
 .sbss          0xa00002e0        0xc build/default/debug/UART.o
                0xa00002e0                lastScanPosition
                0xa00002e4                currPackageOffset
                0xa00002e8                freeNextData
 .sbss          0xa00002ec        0x8 build/default/debug/main_blinky.o
 .sbss          0xa00002f4       0x10 build/default/debug/LED.o
                0xa00002f4                minLEDTime
                0xa00002f8                ethLEDTime
                0xa00002fc                errLEDTime
                0xa0000300                ethReady
 .sbss          0xa0000304        0x4 c:/program files/microchip/xc32/v2.50/bin/bin/../../lib/gcc/pic32mx/4.8.3/../../../../pic32mx/lib\liblega-c.a(errno.o)
                0xa0000304                errno
 *(.scommon)
 .scommon       0xa0000308        0x8 build/default/debug/FreeRTOS/Core/tasks.o
                0xa0000308                pxDelayedTaskList
                0xa000030c                pxOverflowDelayedTaskList
 .scommon       0xa0000310        0x8 build/default/debug/LAN9250.o
                0xa0000310                ETH_commsSem
                0xa0000314                ETH_commsWaitSem
 .scommon       0xa0000318       0x10 build/default/debug/UART.o
                0xa0000318                UART_rxDMAOverflow
                0xa000031c                UART_sendQueue
                0xa0000320                currBuff
                0xa0000324                UART_txDMA
 .scommon       0xa0000328        0xc build/default/debug/main_blinky.o
                0xa0000328                xSocket
                0xa000032c                xBindAddress
 .scommon       0xa0000334       0x14 build/default/debug/FiberComms.o
                0xa0000334                COMMS_UART
                0xa0000338                xListeningSocket
                0xa000033c                COMMS_UDP
                0xa0000340                lastClient
                0xa0000348                _sbss_end = .
                0xa0000348                . = ALIGN (0x4)

.bss            0xa0000348       0xdc
 *(.dynbss)
 *(COMMON)
 COMMON         0xa0000348       0xc8 build/default/debug/FreeRTOS/Core/tasks.o
                0xa0000348                pxReadyTasksLists
                0xa00003ac                xPendingReadyList
                0xa00003c0                xSuspendedTaskList
                0xa00003d4                xDelayedTaskList1
                0xa00003e8                xTasksWaitingTermination
                0xa00003fc                xDelayedTaskList2
 COMMON         0xa0000410       0x14 build/default/debug/FreeRTOS/TCPIP/FreeRTOS_Sockets.o
                0xa0000410                xBoundTCPSocketsList
                0xa0000424                . = ALIGN ((. != 0x0)?0x4:0x1)
                0xa0000424                . = ALIGN (0x4)
                0xa0000424                _end = .
                0xa0000424                _bss_end = .
                0x00010000                _bmxdudba_address = 0x10000
                0x00010000                _bmxdupba_address = 0x10000

/DISCARD/
 *(.pdr)
 *(.rel.dyn)
 *(.note.GNU-stack)
 *(.note.GNU-stack)
 *(.gnu_debuglink)
 *(.gnu.lto_*)
 *(.discard)

.gptab.sdata
 *(.gptab.data)
 *(.gptab.sdata)

.gptab.sbss
 *(.gptab.bss)
 *(.gptab.sbss)

.mdebug.abi32   0xa0000424        0x0
 *(.mdebug.abi32)
 .mdebug.abi32  0xa0000424        0x0 c:/program files/microchip/xc32/v2.50/bin/bin/../../lib/gcc/pic32mx/4.8.3/../../../../pic32mx/lib\software-debug-break.o
 .mdebug.abi32  0xa0000424        0x0 build/default/debug/FreeRTOS/Core/event_groups.o
 .mdebug.abi32  0xa0000424        0x0 build/default/debug/FreeRTOS/Core/list.o
 .mdebug.abi32  0xa0000424        0x0 build/default/debug/FreeRTOS/Core/queue.o
 .mdebug.abi32  0xa0000424        0x0 build/default/debug/FreeRTOS/Core/stream_buffer.o
 .mdebug.abi32  0xa0000424        0x0 build/default/debug/FreeRTOS/Core/tasks.o
 .mdebug.abi32  0xa0000424        0x0 build/default/debug/FreeRTOS/Core/timers.o
 .mdebug.abi32  0xa0000424        0x0 build/default/debug/FreeRTOS/Core/portable/MemMang/heap_4.o
 .mdebug.abi32  0xa0000424        0x0 build/default/debug/FreeRTOS/Core/portable/MPLAB/PIC32MX/port.o
 .mdebug.abi32  0xa0000424        0x0 build/default/debug/FreeRTOS/TCPIP/FreeRTOS_ARP.o
 .mdebug.abi32  0xa0000424        0x0 build/default/debug/FreeRTOS/TCPIP/FreeRTOS_DHCP.o
 .mdebug.abi32  0xa0000424        0x0 build/default/debug/FreeRTOS/TCPIP/FreeRTOS_DNS.o
 .mdebug.abi32  0xa0000424        0x0 build/default/debug/FreeRTOS/TCPIP/FreeRTOS_IP.o
 .mdebug.abi32  0xa0000424        0x0 build/default/debug/FreeRTOS/TCPIP/FreeRTOS_Sockets.o
 .mdebug.abi32  0xa0000424        0x0 build/default/debug/FreeRTOS/TCPIP/FreeRTOS_Stream_Buffer.o
 .mdebug.abi32  0xa0000424        0x0 build/default/debug/FreeRTOS/TCPIP/FreeRTOS_TCP_IP.o
 .mdebug.abi32  0xa0000424        0x0 build/default/debug/FreeRTOS/TCPIP/FreeRTOS_TCP_WIN.o
 .mdebug.abi32  0xa0000424        0x0 build/default/debug/FreeRTOS/TCPIP/FreeRTOS_UDP_IP.o
 .mdebug.abi32  0xa0000424        0x0 build/default/debug/FreeRTOS/TCPIP/portable/BufferManagement/BufferAllocation_2.o
 .mdebug.abi32  0xa0000424        0x0 build/default/debug/ConfigPerformance.o
 .mdebug.abi32  0xa0000424        0x0 build/default/debug/LAN9250.o
 .mdebug.abi32  0xa0000424        0x0 build/default/debug/NetworkInterface_LAN9250.o
 .mdebug.abi32  0xa0000424        0x0 build/default/debug/SPI.o
 .mdebug.abi32  0xa0000424        0x0 build/default/debug/UART.o
 .mdebug.abi32  0xa0000424        0x0 build/default/debug/main.o
 .mdebug.abi32  0xa0000424        0x0 build/default/debug/main_blinky.o
 .mdebug.abi32  0xa0000424        0x0 build/default/debug/LED.o
 .mdebug.abi32  0xa0000424        0x0 build/default/debug/FiberComms.o
 .mdebug.abi32  0xa0000424        0x0 build/default/debug/min.o
 .mdebug.abi32  0xa0000424        0x0 c:/program files/microchip/xc32/v2.50/bin/bin/../../lib/gcc/pic32mx/4.8.3\libgcc.a(_udivdi3.o)
 .mdebug.abi32  0xa0000424        0x0 c:/program files/microchip/xc32/v2.50/bin/bin/../../lib/gcc/pic32mx/4.8.3/../../../../pic32mx/lib\libpic32.a(default-bootstrap-exception-handler.o)
 .mdebug.abi32  0xa0000424        0x0 c:/program files/microchip/xc32/v2.50/bin/bin/../../lib/gcc/pic32mx/4.8.3/../../../../pic32mx/lib\libpic32.a(default-on-reset.o)
 .mdebug.abi32  0xa0000424        0x0 c:/program files/microchip/xc32/v2.50/bin/bin/../../lib/gcc/pic32mx/4.8.3/../../../../pic32mx/lib\libpic32.a(default-on-bootstrap.o)
 .mdebug.abi32  0xa0000424        0x0 c:/program files/microchip/xc32/v2.50/bin/bin/../../lib/gcc/pic32mx/4.8.3/../../../../pic32mx/lib\libpic32.a(defaultinterrupt.o)
 .mdebug.abi32  0xa0000424        0x0 c:/program files/microchip/xc32/v2.50/bin/bin/../../lib/gcc/pic32mx/4.8.3/../../../../pic32mx/lib\liblega-c.a(memmove.o)
 .mdebug.abi32  0xa0000424        0x0 c:/program files/microchip/xc32/v2.50/bin/bin/../../lib/gcc/pic32mx/4.8.3/../../../../pic32mx/lib\liblega-c.a(rand.o)
 .mdebug.abi32  0xa0000424        0x0 c:/program files/microchip/xc32/v2.50/bin/bin/../../lib/gcc/pic32mx/4.8.3/../../../../pic32mx/lib\liblega-c.a(snprintf_cdnopsuxX.eo)
 .mdebug.abi32  0xa0000424        0x0 c:/program files/microchip/xc32/v2.50/bin/bin/../../lib/gcc/pic32mx/4.8.3/../../../../pic32mx/lib\liblega-c.a(vsprintf.o)
 .mdebug.abi32  0xa0000424        0x0 c:/program files/microchip/xc32/v2.50/bin/bin/../../lib/gcc/pic32mx/4.8.3/../../../../pic32mx/lib\liblega-c.a(stubs.o)
 .mdebug.abi32  0xa0000424        0x0 c:/program files/microchip/xc32/v2.50/bin/bin/../../lib/gcc/pic32mx/4.8.3/../../../../pic32mx/lib\liblega-c.a(_doprnt_cdnopsuxX.eo)
 .mdebug.abi32  0xa0000424        0x0 c:/program files/microchip/xc32/v2.50/bin/bin/../../lib/gcc/pic32mx/4.8.3/../../../../pic32mx/lib\liblega-c.a(_doprnt.o)
 .mdebug.abi32  0xa0000424        0x0 c:/program files/microchip/xc32/v2.50/bin/bin/../../lib/gcc/pic32mx/4.8.3/../../../../pic32mx/lib\liblega-c.a(_iobdata.o)
 .mdebug.abi32  0xa0000424        0x0 c:/program files/microchip/xc32/v2.50/bin/bin/../../lib/gcc/pic32mx/4.8.3/../../../../pic32mx/lib\liblega-c.a(_iobfuncs.o)
 .mdebug.abi32  0xa0000424        0x0 c:/program files/microchip/xc32/v2.50/bin/bin/../../lib/gcc/pic32mx/4.8.3/../../../../pic32mx/lib\liblega-c.a(_iobstring.o)
 .mdebug.abi32  0xa0000424        0x0 c:/program files/microchip/xc32/v2.50/bin/bin/../../lib/gcc/pic32mx/4.8.3/../../../../pic32mx/lib\liblega-c.a(fputc.o)
 .mdebug.abi32  0xa0000424        0x0 c:/program files/microchip/xc32/v2.50/bin/bin/../../lib/gcc/pic32mx/4.8.3/../../../../pic32mx/lib\liblega-c.a(errno.o)
 .mdebug.abi32  0xa0000424        0x0 c:/program files/microchip/xc32/v2.50/bin/bin/../../lib/gcc/pic32mx/4.8.3\libgcc.a(_umoddi3.o)
 .mdebug.abi32  0xa0000424        0x0 c:/program files/microchip/xc32/v2.50/bin/bin/../../lib/gcc/pic32mx/4.8.3/../../../../pic32mx/lib\libpic32.a(_mon_getc.o)
 .mdebug.abi32  0xa0000424        0x0 c:/program files/microchip/xc32/v2.50/bin/bin/../../lib/gcc/pic32mx/4.8.3/../../../../pic32mx/lib\libpic32.a(_mon_write.o)
 .mdebug.abi32  0xa0000424        0x0 c:/program files/microchip/xc32/v2.50/bin/bin/../../lib/gcc/pic32mx/4.8.3/../../../../pic32mx/lib\libpic32.a(xc32_uart.o)
 .mdebug.abi32  0xa0000424        0x0 c:/program files/microchip/xc32/v2.50/bin/bin/../../lib/gcc/pic32mx/4.8.3/../../../../pic32mx/lib\libpic32.a(_mon_putc.o)

.mdebug.abiN32
 *(.mdebug.abiN32)

.mdebug.abi64
 *(.mdebug.abi64)

.mdebug.abiO64
 *(.mdebug.abiO64)

.mdebug.eabi32
 *(.mdebug.eabi32)

.mdebug.eabi64
 *(.mdebug.eabi64)

.gcc_compiled_long32
 *(.gcc_compiled_long32)

.gcc_compiled_long64
 *(.gcc_compiled_long64)

.stab
 *(.stab)

.stabstr
 *(.stabstr)

.stab.excl
 *(.stab.excl)

.stab.exclstr
 *(.stab.exclstr)

.stab.index
 *(.stab.index)

.stab.indexstr
 *(.stab.indexstr)

.comment        0x00000000      0x434
 *(.comment)
 .comment       0x00000000       0x3c c:/program files/microchip/xc32/v2.50/bin/bin/../../lib/gcc/pic32mx/4.8.3/../../../../pic32mx/lib\software-debug-break.o
                                 0x3d (size before relaxing)
 .comment       0x00000000       0x3d build/default/debug/FreeRTOS/Core/event_groups.o
 .comment       0x00000000       0x3d build/default/debug/FreeRTOS/Core/list.o
 .comment       0x00000000       0x3d build/default/debug/FreeRTOS/Core/queue.o
 .comment       0x00000000       0x3d build/default/debug/FreeRTOS/Core/stream_buffer.o
 .comment       0x00000000       0x3d build/default/debug/FreeRTOS/Core/tasks.o
 .comment       0x00000000       0x3d build/default/debug/FreeRTOS/Core/timers.o
 .comment       0x00000000       0x3d build/default/debug/FreeRTOS/Core/portable/MemMang/heap_4.o
 .comment       0x00000000       0x3d build/default/debug/FreeRTOS/Core/portable/MPLAB/PIC32MX/port.o
 .comment       0x00000000       0x3d build/default/debug/FreeRTOS/TCPIP/FreeRTOS_ARP.o
 .comment       0x00000000       0x3d build/default/debug/FreeRTOS/TCPIP/FreeRTOS_DHCP.o
 .comment       0x00000000       0x3d build/default/debug/FreeRTOS/TCPIP/FreeRTOS_DNS.o
 .comment       0x00000000       0x3d build/default/debug/FreeRTOS/TCPIP/FreeRTOS_IP.o
 .comment       0x00000000       0x3d build/default/debug/FreeRTOS/TCPIP/FreeRTOS_Sockets.o
 .comment       0x00000000       0x3d build/default/debug/FreeRTOS/TCPIP/FreeRTOS_Stream_Buffer.o
 .comment       0x00000000       0x3d build/default/debug/FreeRTOS/TCPIP/FreeRTOS_TCP_IP.o
 .comment       0x00000000       0x3d build/default/debug/FreeRTOS/TCPIP/FreeRTOS_TCP_WIN.o
 .comment       0x00000000       0x3d build/default/debug/FreeRTOS/TCPIP/FreeRTOS_UDP_IP.o
 .comment       0x00000000       0x3d build/default/debug/FreeRTOS/TCPIP/portable/BufferManagement/BufferAllocation_2.o
 .comment       0x00000000       0x3d build/default/debug/ConfigPerformance.o
 .comment       0x00000000       0x3d build/default/debug/LAN9250.o
 .comment       0x00000000       0x3d build/default/debug/NetworkInterface_LAN9250.o
 .comment       0x00000000       0x3d build/default/debug/SPI.o
 .comment       0x00000000       0x3d build/default/debug/UART.o
 .comment       0x00000000       0x3d build/default/debug/main.o
 .comment       0x00000000       0x3d build/default/debug/main_blinky.o
 .comment       0x00000000       0x3d build/default/debug/LED.o
 .comment       0x00000000       0x3d build/default/debug/FiberComms.o
 .comment       0x00000000       0x3d build/default/debug/min.o
 .comment       0x00000000       0x3d c:/program files/microchip/xc32/v2.50/bin/bin/../../lib/gcc/pic32mx/4.8.3\libgcc.a(_udivdi3.o)
 .comment       0x0000003c       0x18 c:/program files/microchip/xc32/v2.50/bin/bin/../../lib/gcc/pic32mx/4.8.3/../../../../pic32mx/lib\libpic32.a(memcmp.o)
                                 0x19 (size before relaxing)
 .comment       0x00000054       0x18 c:/program files/microchip/xc32/v2.50/bin/bin/../../lib/gcc/pic32mx/4.8.3/../../../../pic32mx/lib\libpic32.a(memset.o)
                                 0x19 (size before relaxing)
 .comment       0x0000006c       0x19 c:/program files/microchip/xc32/v2.50/bin/bin/../../lib/gcc/pic32mx/4.8.3/../../../../pic32mx/lib\libpic32.a(strcmp.o)
                                 0x1a (size before relaxing)
 .comment       0x00000085       0x19 c:/program files/microchip/xc32/v2.50/bin/bin/../../lib/gcc/pic32mx/4.8.3/../../../../pic32mx/lib\libpic32.a(strcpy.o)
                                 0x1a (size before relaxing)
 .comment       0x0000009e       0x19 c:/program files/microchip/xc32/v2.50/bin/bin/../../lib/gcc/pic32mx/4.8.3/../../../../pic32mx/lib\libpic32.a(strlen.o)
                                 0x1a (size before relaxing)
 .comment       0x00000000       0x3d c:/program files/microchip/xc32/v2.50/bin/bin/../../lib/gcc/pic32mx/4.8.3/../../../../pic32mx/lib\libpic32.a(default-bootstrap-exception-handler.o)
 .comment       0x00000000       0x3d c:/program files/microchip/xc32/v2.50/bin/bin/../../lib/gcc/pic32mx/4.8.3/../../../../pic32mx/lib\libpic32.a(default-on-reset.o)
 .comment       0x00000000       0x3d c:/program files/microchip/xc32/v2.50/bin/bin/../../lib/gcc/pic32mx/4.8.3/../../../../pic32mx/lib\libpic32.a(default-on-bootstrap.o)
 .comment       0x00000000       0x3d c:/program files/microchip/xc32/v2.50/bin/bin/../../lib/gcc/pic32mx/4.8.3/../../../../pic32mx/lib\libpic32.a(defaultinterrupt.o)
 .comment       0x000000b7       0x50 c:/program files/microchip/xc32/v2.50/bin/bin/../../lib/gcc/pic32mx/4.8.3/../../../../pic32mx/lib\liblega-c.a(memmove.o)
                                 0x8d (size before relaxing)
 .comment       0x00000107       0x4d c:/program files/microchip/xc32/v2.50/bin/bin/../../lib/gcc/pic32mx/4.8.3/../../../../pic32mx/lib\liblega-c.a(rand.o)
                                 0x8a (size before relaxing)
 .comment       0x00000154       0x53 c:/program files/microchip/xc32/v2.50/bin/bin/../../lib/gcc/pic32mx/4.8.3/../../../../pic32mx/lib\liblega-c.a(snprintf_cdnopsuxX.eo)
                                 0x90 (size before relaxing)
 .comment       0x000001a7       0x53 c:/program files/microchip/xc32/v2.50/bin/bin/../../lib/gcc/pic32mx/4.8.3/../../../../pic32mx/lib\liblega-c.a(vsprintf.o)
                                 0x90 (size before relaxing)
 .comment       0x000001fa       0x4e c:/program files/microchip/xc32/v2.50/bin/bin/../../lib/gcc/pic32mx/4.8.3/../../../../pic32mx/lib\liblega-c.a(stubs.o)
                                 0x8b (size before relaxing)
 .comment       0x00000248       0x52 c:/program files/microchip/xc32/v2.50/bin/bin/../../lib/gcc/pic32mx/4.8.3/../../../../pic32mx/lib\liblega-c.a(_doprnt_cdnopsuxX.eo)
                                 0x8f (size before relaxing)
 .comment       0x00000000       0x8f c:/program files/microchip/xc32/v2.50/bin/bin/../../lib/gcc/pic32mx/4.8.3/../../../../pic32mx/lib\liblega-c.a(_doprnt.o)
 .comment       0x0000029a       0x53 c:/program files/microchip/xc32/v2.50/bin/bin/../../lib/gcc/pic32mx/4.8.3/../../../../pic32mx/lib\liblega-c.a(_iobdata.o)
                                 0x90 (size before relaxing)
 .comment       0x000002ed       0x54 c:/program files/microchip/xc32/v2.50/bin/bin/../../lib/gcc/pic32mx/4.8.3/../../../../pic32mx/lib\liblega-c.a(_iobfuncs.o)
                                 0x91 (size before relaxing)
 .comment       0x00000341       0x55 c:/program files/microchip/xc32/v2.50/bin/bin/../../lib/gcc/pic32mx/4.8.3/../../../../pic32mx/lib\liblega-c.a(_iobstring.o)
                                 0x92 (size before relaxing)
 .comment       0x00000396       0x50 c:/program files/microchip/xc32/v2.50/bin/bin/../../lib/gcc/pic32mx/4.8.3/../../../../pic32mx/lib\liblega-c.a(fputc.o)
                                 0x8d (size before relaxing)
 .comment       0x000003e6       0x4e c:/program files/microchip/xc32/v2.50/bin/bin/../../lib/gcc/pic32mx/4.8.3/../../../../pic32mx/lib\liblega-c.a(errno.o)
                                 0x8b (size before relaxing)
 .comment       0x00000000       0x3d c:/program files/microchip/xc32/v2.50/bin/bin/../../lib/gcc/pic32mx/4.8.3\libgcc.a(_umoddi3.o)
 .comment       0x00000000       0x3d c:/program files/microchip/xc32/v2.50/bin/bin/../../lib/gcc/pic32mx/4.8.3/../../../../pic32mx/lib\libpic32.a(_mon_getc.o)
 .comment       0x00000000       0x3d c:/program files/microchip/xc32/v2.50/bin/bin/../../lib/gcc/pic32mx/4.8.3/../../../../pic32mx/lib\libpic32.a(_mon_write.o)
 .comment       0x00000000       0x3d c:/program files/microchip/xc32/v2.50/bin/bin/../../lib/gcc/pic32mx/4.8.3/../../../../pic32mx/lib\libpic32.a(xc32_uart.o)
 .comment       0x00000000       0x3d c:/program files/microchip/xc32/v2.50/bin/bin/../../lib/gcc/pic32mx/4.8.3/../../../../pic32mx/lib\libpic32.a(_mon_putc.o)

.debug
 *(.debug)

.line
 *(.line)

.debug_srcinfo
 *(.debug_srcinfo)

.debug_sfnames
 *(.debug_sfnames)

.debug_aranges  0x00000000      0x520
 *(.debug_aranges)
 .debug_aranges
                0x00000000       0x20 c:/program files/microchip/xc32/v2.50/bin/bin/../../lib/gcc/pic32mx/4.8.3/../../../../pic32mx/lib\software-debug-break.o
 .debug_aranges
                0x00000020       0x20 build/default/debug/FreeRTOS/Core/event_groups.o
 .debug_aranges
                0x00000040       0x20 build/default/debug/FreeRTOS/Core/list.o
 .debug_aranges
                0x00000060       0x20 build/default/debug/FreeRTOS/Core/queue.o
 .debug_aranges
                0x00000080       0x20 build/default/debug/FreeRTOS/Core/stream_buffer.o
 .debug_aranges
                0x000000a0       0x20 build/default/debug/FreeRTOS/Core/tasks.o
 .debug_aranges
                0x000000c0       0x20 build/default/debug/FreeRTOS/Core/timers.o
 .debug_aranges
                0x000000e0       0x20 build/default/debug/FreeRTOS/Core/portable/MemMang/heap_4.o
 .debug_aranges
                0x00000100       0x20 build/default/debug/FreeRTOS/Core/portable/MPLAB/PIC32MX/port.o
 .debug_aranges
                0x00000120       0x20 build/default/debug/FreeRTOS/Core/portable/MPLAB/PIC32MX/port_asm.o
 .debug_aranges
                0x00000140       0x20 build/default/debug/FreeRTOS/TCPIP/FreeRTOS_ARP.o
 .debug_aranges
                0x00000160       0x20 build/default/debug/FreeRTOS/TCPIP/FreeRTOS_DHCP.o
 .debug_aranges
                0x00000180       0x20 build/default/debug/FreeRTOS/TCPIP/FreeRTOS_DNS.o
 .debug_aranges
                0x000001a0       0x20 build/default/debug/FreeRTOS/TCPIP/FreeRTOS_IP.o
 .debug_aranges
                0x000001c0       0x20 build/default/debug/FreeRTOS/TCPIP/FreeRTOS_Sockets.o
 .debug_aranges
                0x000001e0       0x20 build/default/debug/FreeRTOS/TCPIP/FreeRTOS_Stream_Buffer.o
 .debug_aranges
                0x00000200       0x20 build/default/debug/FreeRTOS/TCPIP/FreeRTOS_TCP_IP.o
 .debug_aranges
                0x00000220       0x20 build/default/debug/FreeRTOS/TCPIP/FreeRTOS_TCP_WIN.o
 .debug_aranges
                0x00000240       0x20 build/default/debug/FreeRTOS/TCPIP/FreeRTOS_UDP_IP.o
 .debug_aranges
                0x00000260       0x20 build/default/debug/FreeRTOS/TCPIP/portable/BufferManagement/BufferAllocation_2.o
 .debug_aranges
                0x00000280       0x20 build/default/debug/ConfigPerformance.o
 .debug_aranges
                0x000002a0       0x20 build/default/debug/LAN9250.o
 .debug_aranges
                0x000002c0       0x20 build/default/debug/NetworkInterface_LAN9250.o
 .debug_aranges
                0x000002e0       0x20 build/default/debug/SPI.o
 .debug_aranges
                0x00000300       0x20 build/default/debug/UART.o
 .debug_aranges
                0x00000320       0x20 build/default/debug/main.o
 .debug_aranges
                0x00000340       0x20 build/default/debug/main_blinky.o
 .debug_aranges
                0x00000360       0x20 build/default/debug/LED.o
 .debug_aranges
                0x00000380       0x20 build/default/debug/FiberComms.o
 .debug_aranges
                0x000003a0       0x20 build/default/debug/min.o
 .debug_aranges
                0x000003c0       0x40 C:\Users\Thorb\AppData\Local\Temp\ccdgVN5b.o
 .debug_aranges
                0x00000400       0x20 c:/program files/microchip/xc32/v2.50/bin/bin/../../lib/gcc/pic32mx/4.8.3\libgcc.a(_udivdi3.o)
 .debug_aranges
                0x00000420       0x20 c:/program files/microchip/xc32/v2.50/bin/bin/../../lib/gcc/pic32mx/4.8.3/../../../../pic32mx/lib\libpic32.a(default-bootstrap-exception-handler.o)
 .debug_aranges
                0x00000440       0x20 c:/program files/microchip/xc32/v2.50/bin/bin/../../lib/gcc/pic32mx/4.8.3/../../../../pic32mx/lib\libpic32.a(default-on-reset.o)
 .debug_aranges
                0x00000460       0x20 c:/program files/microchip/xc32/v2.50/bin/bin/../../lib/gcc/pic32mx/4.8.3/../../../../pic32mx/lib\libpic32.a(default-on-bootstrap.o)
 .debug_aranges
                0x00000480       0x20 c:/program files/microchip/xc32/v2.50/bin/bin/../../lib/gcc/pic32mx/4.8.3/../../../../pic32mx/lib\libpic32.a(defaultinterrupt.o)
 .debug_aranges
                0x000004a0       0x20 c:/program files/microchip/xc32/v2.50/bin/bin/../../lib/gcc/pic32mx/4.8.3\libgcc.a(_umoddi3.o)
 .debug_aranges
                0x000004c0       0x20 c:/program files/microchip/xc32/v2.50/bin/bin/../../lib/gcc/pic32mx/4.8.3/../../../../pic32mx/lib\libpic32.a(_mon_getc.o)
 .debug_aranges
                0x000004e0       0x20 c:/program files/microchip/xc32/v2.50/bin/bin/../../lib/gcc/pic32mx/4.8.3/../../../../pic32mx/lib\libpic32.a(_mon_write.o)
 .debug_aranges
                0x00000500       0x20 c:/program files/microchip/xc32/v2.50/bin/bin/../../lib/gcc/pic32mx/4.8.3/../../../../pic32mx/lib\libpic32.a(_mon_putc.o)

.debug_pubnames
 *(.debug_pubnames)

.debug_info     0x00000000    0x325f2
 *(.debug_info .gnu.linkonce.wi.*)
 .debug_info    0x00000000       0xe3 c:/program files/microchip/xc32/v2.50/bin/bin/../../lib/gcc/pic32mx/4.8.3/../../../../pic32mx/lib\software-debug-break.o
 .debug_info    0x000000e3      0xd63 build/default/debug/FreeRTOS/Core/event_groups.o
 .debug_info    0x00000e46      0x446 build/default/debug/FreeRTOS/Core/list.o
 .debug_info    0x0000128c     0x21f8 build/default/debug/FreeRTOS/Core/queue.o
 .debug_info    0x00003484     0x190b build/default/debug/FreeRTOS/Core/stream_buffer.o
 .debug_info    0x00004d8f     0x307f build/default/debug/FreeRTOS/Core/tasks.o
 .debug_info    0x00007e0e     0x169a build/default/debug/FreeRTOS/Core/timers.o
 .debug_info    0x000094a8      0x7f4 build/default/debug/FreeRTOS/Core/portable/MemMang/heap_4.o
 .debug_info    0x00009c9c      0xf26 build/default/debug/FreeRTOS/Core/portable/MPLAB/PIC32MX/port.o
 .debug_info    0x0000abc2       0x83 build/default/debug/FreeRTOS/Core/portable/MPLAB/PIC32MX/port_asm.o
 .debug_info    0x0000ac45     0x1868 build/default/debug/FreeRTOS/TCPIP/FreeRTOS_ARP.o
 .debug_info    0x0000c4ad     0x26c5 build/default/debug/FreeRTOS/TCPIP/FreeRTOS_DHCP.o
 .debug_info    0x0000eb72     0x3653 build/default/debug/FreeRTOS/TCPIP/FreeRTOS_DNS.o
 .debug_info    0x000121c5     0x4aac build/default/debug/FreeRTOS/TCPIP/FreeRTOS_IP.o
 .debug_info    0x00016c71     0x58c0 build/default/debug/FreeRTOS/TCPIP/FreeRTOS_Sockets.o
 .debug_info    0x0001c531      0x805 build/default/debug/FreeRTOS/TCPIP/FreeRTOS_Stream_Buffer.o
 .debug_info    0x0001cd36     0x57ca build/default/debug/FreeRTOS/TCPIP/FreeRTOS_TCP_IP.o
 .debug_info    0x00022500     0x251e build/default/debug/FreeRTOS/TCPIP/FreeRTOS_TCP_WIN.o
 .debug_info    0x00024a1e     0x1f00 build/default/debug/FreeRTOS/TCPIP/FreeRTOS_UDP_IP.o
 .debug_info    0x0002691e      0xba5 build/default/debug/FreeRTOS/TCPIP/portable/BufferManagement/BufferAllocation_2.o
 .debug_info    0x000274c3      0x809 build/default/debug/ConfigPerformance.o
 .debug_info    0x00027ccc     0x3a57 build/default/debug/LAN9250.o
 .debug_info    0x0002b723      0xaf5 build/default/debug/NetworkInterface_LAN9250.o
 .debug_info    0x0002c218      0x725 build/default/debug/SPI.o
 .debug_info    0x0002c93d     0x16dc build/default/debug/UART.o
 .debug_info    0x0002e019      0x734 build/default/debug/main.o
 .debug_info    0x0002e74d      0xba8 build/default/debug/main_blinky.o
 .debug_info    0x0002f2f5      0x447 build/default/debug/LED.o
 .debug_info    0x0002f73c      0xcf6 build/default/debug/FiberComms.o
 .debug_info    0x00030432      0xc64 build/default/debug/min.o
 .debug_info    0x00031096       0xb5 C:\Users\Thorb\AppData\Local\Temp\ccdgVN5b.o
 .debug_info    0x0003114b      0x74b c:/program files/microchip/xc32/v2.50/bin/bin/../../lib/gcc/pic32mx/4.8.3\libgcc.a(_udivdi3.o)
 .debug_info    0x00031896       0xf4 c:/program files/microchip/xc32/v2.50/bin/bin/../../lib/gcc/pic32mx/4.8.3/../../../../pic32mx/lib\libpic32.a(default-bootstrap-exception-handler.o)
 .debug_info    0x0003198a       0xcd c:/program files/microchip/xc32/v2.50/bin/bin/../../lib/gcc/pic32mx/4.8.3/../../../../pic32mx/lib\libpic32.a(default-on-reset.o)
 .debug_info    0x00031a57       0xd5 c:/program files/microchip/xc32/v2.50/bin/bin/../../lib/gcc/pic32mx/4.8.3/../../../../pic32mx/lib\libpic32.a(default-on-bootstrap.o)
 .debug_info    0x00031b2c       0xe7 c:/program files/microchip/xc32/v2.50/bin/bin/../../lib/gcc/pic32mx/4.8.3/../../../../pic32mx/lib\libpic32.a(defaultinterrupt.o)
 .debug_info    0x00031c13      0x788 c:/program files/microchip/xc32/v2.50/bin/bin/../../lib/gcc/pic32mx/4.8.3\libgcc.a(_umoddi3.o)
 .debug_info    0x0003239b       0xc7 c:/program files/microchip/xc32/v2.50/bin/bin/../../lib/gcc/pic32mx/4.8.3/../../../../pic32mx/lib\libpic32.a(_mon_getc.o)
 .debug_info    0x00032462       0xc9 c:/program files/microchip/xc32/v2.50/bin/bin/../../lib/gcc/pic32mx/4.8.3/../../../../pic32mx/lib\libpic32.a(_mon_write.o)
 .debug_info    0x0003252b       0xc7 c:/program files/microchip/xc32/v2.50/bin/bin/../../lib/gcc/pic32mx/4.8.3/../../../../pic32mx/lib\libpic32.a(_mon_putc.o)

.debug_abbrev   0x00000000     0x4bda
 *(.debug_abbrev)
 .debug_abbrev  0x00000000       0x28 c:/program files/microchip/xc32/v2.50/bin/bin/../../lib/gcc/pic32mx/4.8.3/../../../../pic32mx/lib\software-debug-break.o
 .debug_abbrev  0x00000028      0x244 build/default/debug/FreeRTOS/Core/event_groups.o
 .debug_abbrev  0x0000026c       0xe7 build/default/debug/FreeRTOS/Core/list.o
 .debug_abbrev  0x00000353      0x266 build/default/debug/FreeRTOS/Core/queue.o
 .debug_abbrev  0x000005b9      0x2b5 build/default/debug/FreeRTOS/Core/stream_buffer.o
 .debug_abbrev  0x0000086e      0x2cf build/default/debug/FreeRTOS/Core/tasks.o
 .debug_abbrev  0x00000b3d      0x2b6 build/default/debug/FreeRTOS/Core/timers.o
 .debug_abbrev  0x00000df3      0x1d1 build/default/debug/FreeRTOS/Core/portable/MemMang/heap_4.o
 .debug_abbrev  0x00000fc4      0x2e8 build/default/debug/FreeRTOS/Core/portable/MPLAB/PIC32MX/port.o
 .debug_abbrev  0x000012ac       0x14 build/default/debug/FreeRTOS/Core/portable/MPLAB/PIC32MX/port_asm.o
 .debug_abbrev  0x000012c0      0x33d build/default/debug/FreeRTOS/TCPIP/FreeRTOS_ARP.o
 .debug_abbrev  0x000015fd      0x360 build/default/debug/FreeRTOS/TCPIP/FreeRTOS_DHCP.o
 .debug_abbrev  0x0000195d      0x39e build/default/debug/FreeRTOS/TCPIP/FreeRTOS_DNS.o
 .debug_abbrev  0x00001cfb      0x423 build/default/debug/FreeRTOS/TCPIP/FreeRTOS_IP.o
 .debug_abbrev  0x0000211e      0x46a build/default/debug/FreeRTOS/TCPIP/FreeRTOS_Sockets.o
 .debug_abbrev  0x00002588      0x15e build/default/debug/FreeRTOS/TCPIP/FreeRTOS_Stream_Buffer.o
 .debug_abbrev  0x000026e6      0x408 build/default/debug/FreeRTOS/TCPIP/FreeRTOS_TCP_IP.o
 .debug_abbrev  0x00002aee      0x2b7 build/default/debug/FreeRTOS/TCPIP/FreeRTOS_TCP_WIN.o
 .debug_abbrev  0x00002da5      0x358 build/default/debug/FreeRTOS/TCPIP/FreeRTOS_UDP_IP.o
 .debug_abbrev  0x000030fd      0x250 build/default/debug/FreeRTOS/TCPIP/portable/BufferManagement/BufferAllocation_2.o
 .debug_abbrev  0x0000334d      0x147 build/default/debug/ConfigPerformance.o
 .debug_abbrev  0x00003494      0x3c2 build/default/debug/LAN9250.o
 .debug_abbrev  0x00003856      0x1de build/default/debug/NetworkInterface_LAN9250.o
 .debug_abbrev  0x00003a34      0x14a build/default/debug/SPI.o
 .debug_abbrev  0x00003b7e      0x33b build/default/debug/UART.o
 .debug_abbrev  0x00003eb9      0x1ff build/default/debug/main.o
 .debug_abbrev  0x000040b8      0x229 build/default/debug/main_blinky.o
 .debug_abbrev  0x000042e1      0x10b build/default/debug/LED.o
 .debug_abbrev  0x000043ec      0x240 build/default/debug/FiberComms.o
 .debug_abbrev  0x0000462c      0x205 build/default/debug/min.o
 .debug_abbrev  0x00004831       0x12 C:\Users\Thorb\AppData\Local\Temp\ccdgVN5b.o
 .debug_abbrev  0x00004843      0x138 c:/program files/microchip/xc32/v2.50/bin/bin/../../lib/gcc/pic32mx/4.8.3\libgcc.a(_udivdi3.o)
 .debug_abbrev  0x0000497b       0x28 c:/program files/microchip/xc32/v2.50/bin/bin/../../lib/gcc/pic32mx/4.8.3/../../../../pic32mx/lib\libpic32.a(default-bootstrap-exception-handler.o)
 .debug_abbrev  0x000049a3       0x28 c:/program files/microchip/xc32/v2.50/bin/bin/../../lib/gcc/pic32mx/4.8.3/../../../../pic32mx/lib\libpic32.a(default-on-reset.o)
 .debug_abbrev  0x000049cb       0x28 c:/program files/microchip/xc32/v2.50/bin/bin/../../lib/gcc/pic32mx/4.8.3/../../../../pic32mx/lib\libpic32.a(default-on-bootstrap.o)
 .debug_abbrev  0x000049f3       0x28 c:/program files/microchip/xc32/v2.50/bin/bin/../../lib/gcc/pic32mx/4.8.3/../../../../pic32mx/lib\libpic32.a(defaultinterrupt.o)
 .debug_abbrev  0x00004a1b      0x147 c:/program files/microchip/xc32/v2.50/bin/bin/../../lib/gcc/pic32mx/4.8.3\libgcc.a(_umoddi3.o)
 .debug_abbrev  0x00004b62       0x28 c:/program files/microchip/xc32/v2.50/bin/bin/../../lib/gcc/pic32mx/4.8.3/../../../../pic32mx/lib\libpic32.a(_mon_getc.o)
 .debug_abbrev  0x00004b8a       0x28 c:/program files/microchip/xc32/v2.50/bin/bin/../../lib/gcc/pic32mx/4.8.3/../../../../pic32mx/lib\libpic32.a(_mon_write.o)
 .debug_abbrev  0x00004bb2       0x28 c:/program files/microchip/xc32/v2.50/bin/bin/../../lib/gcc/pic32mx/4.8.3/../../../../pic32mx/lib\libpic32.a(_mon_putc.o)

.debug_line     0x00000000     0x7ca2
 *(.debug_line)
 .debug_line    0x00000000       0x99 c:/program files/microchip/xc32/v2.50/bin/bin/../../lib/gcc/pic32mx/4.8.3/../../../../pic32mx/lib\software-debug-break.o
 .debug_line    0x00000099      0x2d7 build/default/debug/FreeRTOS/Core/event_groups.o
 .debug_line    0x00000370      0x1a7 build/default/debug/FreeRTOS/Core/list.o
 .debug_line    0x00000517      0x503 build/default/debug/FreeRTOS/Core/queue.o
 .debug_line    0x00000a1a      0x3c0 build/default/debug/FreeRTOS/Core/stream_buffer.o
 .debug_line    0x00000dda      0x724 build/default/debug/FreeRTOS/Core/tasks.o
 .debug_line    0x000014fe      0x36e build/default/debug/FreeRTOS/Core/timers.o
 .debug_line    0x0000186c      0x28a build/default/debug/FreeRTOS/Core/portable/MemMang/heap_4.o
 .debug_line    0x00001af6      0x241 build/default/debug/FreeRTOS/Core/portable/MPLAB/PIC32MX/port.o
 .debug_line    0x00001d37       0xe2 build/default/debug/FreeRTOS/Core/portable/MPLAB/PIC32MX/port_asm.o
 .debug_line    0x00001e19      0x43c build/default/debug/FreeRTOS/TCPIP/FreeRTOS_ARP.o
 .debug_line    0x00002255      0x461 build/default/debug/FreeRTOS/TCPIP/FreeRTOS_DHCP.o
 .debug_line    0x000026b6      0x5f6 build/default/debug/FreeRTOS/TCPIP/FreeRTOS_DNS.o
 .debug_line    0x00002cac      0x7e6 build/default/debug/FreeRTOS/TCPIP/FreeRTOS_IP.o
 .debug_line    0x00003492      0xa97 build/default/debug/FreeRTOS/TCPIP/FreeRTOS_Sockets.o
 .debug_line    0x00003f29      0x297 build/default/debug/FreeRTOS/TCPIP/FreeRTOS_Stream_Buffer.o
 .debug_line    0x000041c0      0xaa4 build/default/debug/FreeRTOS/TCPIP/FreeRTOS_TCP_IP.o
 .debug_line    0x00004c64      0x58e build/default/debug/FreeRTOS/TCPIP/FreeRTOS_TCP_WIN.o
 .debug_line    0x000051f2      0x3c5 build/default/debug/FreeRTOS/TCPIP/FreeRTOS_UDP_IP.o
 .debug_line    0x000055b7      0x2ef build/default/debug/FreeRTOS/TCPIP/portable/BufferManagement/BufferAllocation_2.o
 .debug_line    0x000058a6      0x160 build/default/debug/ConfigPerformance.o
 .debug_line    0x00005a06      0x664 build/default/debug/LAN9250.o
 .debug_line    0x0000606a      0x2b9 build/default/debug/NetworkInterface_LAN9250.o
 .debug_line    0x00006323      0x16a build/default/debug/SPI.o
 .debug_line    0x0000648d      0x440 build/default/debug/UART.o
 .debug_line    0x000068cd      0x2df build/default/debug/main.o
 .debug_line    0x00006bac      0x2dd build/default/debug/main_blinky.o
 .debug_line    0x00006e89      0x15c build/default/debug/LED.o
 .debug_line    0x00006fe5      0x2c2 build/default/debug/FiberComms.o
 .debug_line    0x000072a7      0x294 build/default/debug/min.o
 .debug_line    0x0000753b      0x14d C:\Users\Thorb\AppData\Local\Temp\ccdgVN5b.o
 .debug_line    0x00007688       0xf7 c:/program files/microchip/xc32/v2.50/bin/bin/../../lib/gcc/pic32mx/4.8.3\libgcc.a(_udivdi3.o)
 .debug_line    0x0000777f       0xa6 c:/program files/microchip/xc32/v2.50/bin/bin/../../lib/gcc/pic32mx/4.8.3/../../../../pic32mx/lib\libpic32.a(default-bootstrap-exception-handler.o)
 .debug_line    0x00007825       0x93 c:/program files/microchip/xc32/v2.50/bin/bin/../../lib/gcc/pic32mx/4.8.3/../../../../pic32mx/lib\libpic32.a(default-on-reset.o)
 .debug_line    0x000078b8       0x97 c:/program files/microchip/xc32/v2.50/bin/bin/../../lib/gcc/pic32mx/4.8.3/../../../../pic32mx/lib\libpic32.a(default-on-bootstrap.o)
 .debug_line    0x0000794f       0xa5 c:/program files/microchip/xc32/v2.50/bin/bin/../../lib/gcc/pic32mx/4.8.3/../../../../pic32mx/lib\libpic32.a(defaultinterrupt.o)
 .debug_line    0x000079f4      0x109 c:/program files/microchip/xc32/v2.50/bin/bin/../../lib/gcc/pic32mx/4.8.3\libgcc.a(_umoddi3.o)
 .debug_line    0x00007afd       0x8c c:/program files/microchip/xc32/v2.50/bin/bin/../../lib/gcc/pic32mx/4.8.3/../../../../pic32mx/lib\libpic32.a(_mon_getc.o)
 .debug_line    0x00007b89       0x8d c:/program files/microchip/xc32/v2.50/bin/bin/../../lib/gcc/pic32mx/4.8.3/../../../../pic32mx/lib\libpic32.a(_mon_write.o)
 .debug_line    0x00007c16        0x0 c:/program files/microchip/xc32/v2.50/bin/bin/../../lib/gcc/pic32mx/4.8.3/../../../../pic32mx/lib\libpic32.a(xc32_uart.o)
 .debug_line    0x00007c16       0x8c c:/program files/microchip/xc32/v2.50/bin/bin/../../lib/gcc/pic32mx/4.8.3/../../../../pic32mx/lib\libpic32.a(_mon_putc.o)

.debug_frame    0x00000000     0x5250
 *(.debug_frame)
 .debug_frame   0x00000000       0x20 c:/program files/microchip/xc32/v2.50/bin/bin/../../lib/gcc/pic32mx/4.8.3/../../../../pic32mx/lib\software-debug-break.o
 .debug_frame   0x00000020      0x174 build/default/debug/FreeRTOS/Core/event_groups.o
 .debug_frame   0x00000194       0xb0 build/default/debug/FreeRTOS/Core/list.o
 .debug_frame   0x00000244      0x414 build/default/debug/FreeRTOS/Core/queue.o
 .debug_frame   0x00000658      0x2f4 build/default/debug/FreeRTOS/Core/stream_buffer.o
 .debug_frame   0x0000094c      0x7f8 build/default/debug/FreeRTOS/Core/tasks.o
 .debug_frame   0x00001144      0x30c build/default/debug/FreeRTOS/Core/timers.o
 .debug_frame   0x00001450      0x120 build/default/debug/FreeRTOS/Core/portable/MemMang/heap_4.o
 .debug_frame   0x00001570      0x120 build/default/debug/FreeRTOS/Core/portable/MPLAB/PIC32MX/port.o
 .debug_frame   0x00001690      0x1d8 build/default/debug/FreeRTOS/TCPIP/FreeRTOS_ARP.o
 .debug_frame   0x00001868      0x190 build/default/debug/FreeRTOS/TCPIP/FreeRTOS_DHCP.o
 .debug_frame   0x000019f8      0x34c build/default/debug/FreeRTOS/TCPIP/FreeRTOS_DNS.o
 .debug_frame   0x00001d44      0x7c0 build/default/debug/FreeRTOS/TCPIP/FreeRTOS_IP.o
 .debug_frame   0x00002504      0xa38 build/default/debug/FreeRTOS/TCPIP/FreeRTOS_Sockets.o
 .debug_frame   0x00002f3c      0x120 build/default/debug/FreeRTOS/TCPIP/FreeRTOS_Stream_Buffer.o
 .debug_frame   0x0000305c      0x75c build/default/debug/FreeRTOS/TCPIP/FreeRTOS_TCP_IP.o
 .debug_frame   0x000037b8      0x4b0 build/default/debug/FreeRTOS/TCPIP/FreeRTOS_TCP_WIN.o
 .debug_frame   0x00003c68       0x98 build/default/debug/FreeRTOS/TCPIP/FreeRTOS_UDP_IP.o
 .debug_frame   0x00003d00      0x128 build/default/debug/FreeRTOS/TCPIP/portable/BufferManagement/BufferAllocation_2.o
 .debug_frame   0x00003e28       0xb8 build/default/debug/ConfigPerformance.o
 .debug_frame   0x00003ee0      0x6d8 build/default/debug/LAN9250.o
 .debug_frame   0x000045b8      0x14c build/default/debug/NetworkInterface_LAN9250.o
 .debug_frame   0x00004704       0xfc build/default/debug/SPI.o
 .debug_frame   0x00004800      0x344 build/default/debug/UART.o
 .debug_frame   0x00004b44      0x10c build/default/debug/main.o
 .debug_frame   0x00004c50       0xd0 build/default/debug/main_blinky.o
 .debug_frame   0x00004d20       0xf0 build/default/debug/LED.o
 .debug_frame   0x00004e10      0x180 build/default/debug/FiberComms.o
 .debug_frame   0x00004f90      0x16c build/default/debug/min.o
 .debug_frame   0x000050fc       0x20 c:/program files/microchip/xc32/v2.50/bin/bin/../../lib/gcc/pic32mx/4.8.3\libgcc.a(_udivdi3.o)
 .debug_frame   0x0000511c       0x2c c:/program files/microchip/xc32/v2.50/bin/bin/../../lib/gcc/pic32mx/4.8.3/../../../../pic32mx/lib\libpic32.a(default-bootstrap-exception-handler.o)
 .debug_frame   0x00005148       0x20 c:/program files/microchip/xc32/v2.50/bin/bin/../../lib/gcc/pic32mx/4.8.3/../../../../pic32mx/lib\libpic32.a(default-on-reset.o)
 .debug_frame   0x00005168       0x20 c:/program files/microchip/xc32/v2.50/bin/bin/../../lib/gcc/pic32mx/4.8.3/../../../../pic32mx/lib\libpic32.a(default-on-bootstrap.o)
 .debug_frame   0x00005188       0x20 c:/program files/microchip/xc32/v2.50/bin/bin/../../lib/gcc/pic32mx/4.8.3/../../../../pic32mx/lib\libpic32.a(defaultinterrupt.o)
 .debug_frame   0x000051a8       0x20 c:/program files/microchip/xc32/v2.50/bin/bin/../../lib/gcc/pic32mx/4.8.3\libgcc.a(_umoddi3.o)
 .debug_frame   0x000051c8       0x2c c:/program files/microchip/xc32/v2.50/bin/bin/../../lib/gcc/pic32mx/4.8.3/../../../../pic32mx/lib\libpic32.a(_mon_getc.o)
 .debug_frame   0x000051f4       0x30 c:/program files/microchip/xc32/v2.50/bin/bin/../../lib/gcc/pic32mx/4.8.3/../../../../pic32mx/lib\libpic32.a(_mon_write.o)
 .debug_frame   0x00005224       0x2c c:/program files/microchip/xc32/v2.50/bin/bin/../../lib/gcc/pic32mx/4.8.3/../../../../pic32mx/lib\libpic32.a(_mon_putc.o)

.debug_str      0x00000000     0x13a8
 *(.debug_str)
 .debug_str     0x00000000        0x0 c:/program files/microchip/xc32/v2.50/bin/bin/../../lib/gcc/pic32mx/4.8.3/../../../../pic32mx/lib\software-debug-break.o
 .debug_str     0x00000000       0xe6 build/default/debug/FreeRTOS/Core/event_groups.o
 .debug_str     0x000000e6       0x2b build/default/debug/FreeRTOS/Core/list.o
 .debug_str     0x00000111      0x13b build/default/debug/FreeRTOS/Core/queue.o
 .debug_str     0x0000024c      0x142 build/default/debug/FreeRTOS/Core/stream_buffer.o
 .debug_str     0x0000038e      0x1d2 build/default/debug/FreeRTOS/Core/tasks.o
 .debug_str     0x00000560       0xd2 build/default/debug/FreeRTOS/Core/timers.o
 .debug_str     0x00000632       0x74 build/default/debug/FreeRTOS/Core/portable/MemMang/heap_4.o
 .debug_str     0x000006a6       0x37 build/default/debug/FreeRTOS/Core/portable/MPLAB/PIC32MX/port.o
 .debug_str     0x000006dd       0x97 build/default/debug/FreeRTOS/TCPIP/FreeRTOS_ARP.o
 .debug_str     0x00000774       0x6f build/default/debug/FreeRTOS/TCPIP/FreeRTOS_DHCP.o
 .debug_str     0x000007e3      0x13c build/default/debug/FreeRTOS/TCPIP/FreeRTOS_DNS.o
 .debug_str     0x0000091f      0x1e2 build/default/debug/FreeRTOS/TCPIP/FreeRTOS_IP.o
 .debug_str     0x00000b01      0x250 build/default/debug/FreeRTOS/TCPIP/FreeRTOS_Sockets.o
 .debug_str     0x00000d51       0x28 build/default/debug/FreeRTOS/TCPIP/FreeRTOS_Stream_Buffer.o
 .debug_str     0x00000d79      0x214 build/default/debug/FreeRTOS/TCPIP/FreeRTOS_TCP_IP.o
 .debug_str     0x00000f8d      0x109 build/default/debug/FreeRTOS/TCPIP/FreeRTOS_TCP_WIN.o
 .debug_str     0x00001096       0x6d build/default/debug/FreeRTOS/TCPIP/FreeRTOS_UDP_IP.o
 .debug_str     0x00001103       0x38 build/default/debug/FreeRTOS/TCPIP/portable/BufferManagement/BufferAllocation_2.o
 .debug_str     0x0000113b       0x18 build/default/debug/ConfigPerformance.o
 .debug_str     0x00001153       0xd0 build/default/debug/LAN9250.o
 .debug_str     0x00001223       0x75 build/default/debug/NetworkInterface_LAN9250.o
 .debug_str     0x00001298        0x0 build/default/debug/SPI.o
 .debug_str     0x00001298       0x4f build/default/debug/UART.o
 .debug_str     0x000012e7       0x23 build/default/debug/main.o
 .debug_str     0x0000130a       0x21 build/default/debug/main_blinky.o
 .debug_str     0x0000132b       0x20 build/default/debug/LED.o
 .debug_str     0x0000134b       0x39 build/default/debug/FiberComms.o
 .debug_str     0x00001384       0x24 build/default/debug/min.o
 .debug_str     0x000013a8        0x0 c:/program files/microchip/xc32/v2.50/bin/bin/../../lib/gcc/pic32mx/4.8.3\libgcc.a(_udivdi3.o)
 .debug_str     0x000013a8        0x0 c:/program files/microchip/xc32/v2.50/bin/bin/../../lib/gcc/pic32mx/4.8.3/../../../../pic32mx/lib\libpic32.a(default-bootstrap-exception-handler.o)
 .debug_str     0x000013a8        0x0 c:/program files/microchip/xc32/v2.50/bin/bin/../../lib/gcc/pic32mx/4.8.3/../../../../pic32mx/lib\libpic32.a(default-on-reset.o)
 .debug_str     0x000013a8        0x0 c:/program files/microchip/xc32/v2.50/bin/bin/../../lib/gcc/pic32mx/4.8.3/../../../../pic32mx/lib\libpic32.a(default-on-bootstrap.o)
 .debug_str     0x000013a8        0x0 c:/program files/microchip/xc32/v2.50/bin/bin/../../lib/gcc/pic32mx/4.8.3/../../../../pic32mx/lib\libpic32.a(defaultinterrupt.o)
 .debug_str     0x000013a8        0x0 c:/program files/microchip/xc32/v2.50/bin/bin/../../lib/gcc/pic32mx/4.8.3\libgcc.a(_umoddi3.o)
 .debug_str     0x000013a8        0x0 c:/program files/microchip/xc32/v2.50/bin/bin/../../lib/gcc/pic32mx/4.8.3/../../../../pic32mx/lib\libpic32.a(_mon_getc.o)
 .debug_str     0x000013a8        0x0 c:/program files/microchip/xc32/v2.50/bin/bin/../../lib/gcc/pic32mx/4.8.3/../../../../pic32mx/lib\libpic32.a(_mon_write.o)
 .debug_str     0x000013a8        0x0 c:/program files/microchip/xc32/v2.50/bin/bin/../../lib/gcc/pic32mx/4.8.3/../../../../pic32mx/lib\libpic32.a(xc32_uart.o)
 .debug_str     0x000013a8        0x0 c:/program files/microchip/xc32/v2.50/bin/bin/../../lib/gcc/pic32mx/4.8.3/../../../../pic32mx/lib\libpic32.a(_mon_putc.o)

.debug_loc      0x00000000    0x22c64
 *(.debug_loc)
 .debug_loc     0x00000000      0xd9e build/default/debug/FreeRTOS/Core/event_groups.o
 .debug_loc     0x00000d9e      0x25c build/default/debug/FreeRTOS/Core/list.o
 .debug_loc     0x00000ffa     0x2174 build/default/debug/FreeRTOS/Core/queue.o
 .debug_loc     0x0000316e     0x1cd8 build/default/debug/FreeRTOS/Core/stream_buffer.o
 .debug_loc     0x00004e46     0x30db build/default/debug/FreeRTOS/Core/tasks.o
 .debug_loc     0x00007f21     0x10dd build/default/debug/FreeRTOS/Core/timers.o
 .debug_loc     0x00008ffe      0x6e8 build/default/debug/FreeRTOS/Core/portable/MemMang/heap_4.o
 .debug_loc     0x000096e6      0x389 build/default/debug/FreeRTOS/Core/portable/MPLAB/PIC32MX/port.o
 .debug_loc     0x00009a6f      0xbe6 build/default/debug/FreeRTOS/TCPIP/FreeRTOS_ARP.o
 .debug_loc     0x0000a655      0x8df build/default/debug/FreeRTOS/TCPIP/FreeRTOS_DHCP.o
 .debug_loc     0x0000af34     0x1df6 build/default/debug/FreeRTOS/TCPIP/FreeRTOS_DNS.o
 .debug_loc     0x0000cd2a     0x27ea build/default/debug/FreeRTOS/TCPIP/FreeRTOS_IP.o
 .debug_loc     0x0000f514     0x587b build/default/debug/FreeRTOS/TCPIP/FreeRTOS_Sockets.o
 .debug_loc     0x00014d8f      0x7e9 build/default/debug/FreeRTOS/TCPIP/FreeRTOS_Stream_Buffer.o
 .debug_loc     0x00015578     0x4968 build/default/debug/FreeRTOS/TCPIP/FreeRTOS_TCP_IP.o
 .debug_loc     0x00019ee0     0x253d build/default/debug/FreeRTOS/TCPIP/FreeRTOS_TCP_WIN.o
 .debug_loc     0x0001c41d      0x421 build/default/debug/FreeRTOS/TCPIP/FreeRTOS_UDP_IP.o
 .debug_loc     0x0001c83e      0x555 build/default/debug/FreeRTOS/TCPIP/portable/BufferManagement/BufferAllocation_2.o
 .debug_loc     0x0001cd93      0x270 build/default/debug/ConfigPerformance.o
 .debug_loc     0x0001d003     0x209f build/default/debug/LAN9250.o
 .debug_loc     0x0001f0a2      0x427 build/default/debug/NetworkInterface_LAN9250.o
 .debug_loc     0x0001f4c9      0x39c build/default/debug/SPI.o
 .debug_loc     0x0001f865      0x965 build/default/debug/UART.o
 .debug_loc     0x000201ca      0x2d0 build/default/debug/main.o
 .debug_loc     0x0002049a      0x261 build/default/debug/main_blinky.o
 .debug_loc     0x000206fb      0x1e3 build/default/debug/LED.o
 .debug_loc     0x000208de      0x51d build/default/debug/FiberComms.o
 .debug_loc     0x00020dfb      0x92a build/default/debug/min.o
 .debug_loc     0x00021725      0xa6a c:/program files/microchip/xc32/v2.50/bin/bin/../../lib/gcc/pic32mx/4.8.3\libgcc.a(_udivdi3.o)
 .debug_loc     0x0002218f       0x2c c:/program files/microchip/xc32/v2.50/bin/bin/../../lib/gcc/pic32mx/4.8.3/../../../../pic32mx/lib\libpic32.a(default-bootstrap-exception-handler.o)
 .debug_loc     0x000221bb      0xa3d c:/program files/microchip/xc32/v2.50/bin/bin/../../lib/gcc/pic32mx/4.8.3\libgcc.a(_umoddi3.o)
 .debug_loc     0x00022bf8       0x20 c:/program files/microchip/xc32/v2.50/bin/bin/../../lib/gcc/pic32mx/4.8.3/../../../../pic32mx/lib\libpic32.a(_mon_getc.o)
 .debug_loc     0x00022c18       0x2c c:/program files/microchip/xc32/v2.50/bin/bin/../../lib/gcc/pic32mx/4.8.3/../../../../pic32mx/lib\libpic32.a(_mon_write.o)
 .debug_loc     0x00022c44       0x20 c:/program files/microchip/xc32/v2.50/bin/bin/../../lib/gcc/pic32mx/4.8.3/../../../../pic32mx/lib\libpic32.a(_mon_putc.o)

.debug_macinfo
 *(.debug_macinfo)

.debug_weaknames
 *(.debug_weaknames)

.debug_funcnames
 *(.debug_funcnames)

.debug_typenames
 *(.debug_typenames)

.debug_varnames
 *(.debug_varnames)

.debug_pubtypes
 *(.debug_pubtypes)

.debug_ranges   0x00000000      0x258
 *(.debug_ranges)
 .debug_ranges  0x00000000       0x10 c:/program files/microchip/xc32/v2.50/bin/bin/../../lib/gcc/pic32mx/4.8.3/../../../../pic32mx/lib\software-debug-break.o
 .debug_ranges  0x00000010       0x18 build/default/debug/FreeRTOS/TCPIP/FreeRTOS_DNS.o
 .debug_ranges  0x00000028       0x18 build/default/debug/LAN9250.o
 .debug_ranges  0x00000040       0x38 C:\Users\Thorb\AppData\Local\Temp\ccdgVN5b.o
 .debug_ranges  0x00000078       0x98 c:/program files/microchip/xc32/v2.50/bin/bin/../../lib/gcc/pic32mx/4.8.3\libgcc.a(_udivdi3.o)
 .debug_ranges  0x00000110       0x10 c:/program files/microchip/xc32/v2.50/bin/bin/../../lib/gcc/pic32mx/4.8.3/../../../../pic32mx/lib\libpic32.a(default-bootstrap-exception-handler.o)
 .debug_ranges  0x00000120       0x10 c:/program files/microchip/xc32/v2.50/bin/bin/../../lib/gcc/pic32mx/4.8.3/../../../../pic32mx/lib\libpic32.a(default-on-reset.o)
 .debug_ranges  0x00000130       0x10 c:/program files/microchip/xc32/v2.50/bin/bin/../../lib/gcc/pic32mx/4.8.3/../../../../pic32mx/lib\libpic32.a(default-on-bootstrap.o)
 .debug_ranges  0x00000140       0x10 c:/program files/microchip/xc32/v2.50/bin/bin/../../lib/gcc/pic32mx/4.8.3/../../../../pic32mx/lib\libpic32.a(defaultinterrupt.o)
 .debug_ranges  0x00000150       0xd8 c:/program files/microchip/xc32/v2.50/bin/bin/../../lib/gcc/pic32mx/4.8.3\libgcc.a(_umoddi3.o)
 .debug_ranges  0x00000228       0x10 c:/program files/microchip/xc32/v2.50/bin/bin/../../lib/gcc/pic32mx/4.8.3/../../../../pic32mx/lib\libpic32.a(_mon_getc.o)
 .debug_ranges  0x00000238       0x10 c:/program files/microchip/xc32/v2.50/bin/bin/../../lib/gcc/pic32mx/4.8.3/../../../../pic32mx/lib\libpic32.a(_mon_write.o)
 .debug_ranges  0x00000248       0x10 c:/program files/microchip/xc32/v2.50/bin/bin/../../lib/gcc/pic32mx/4.8.3/../../../../pic32mx/lib\libpic32.a(_mon_putc.o)

.gnu.attributes
                0x00000000       0x10
 *(.gnu.attributes)
 .gnu.attributes
                0x00000000       0x10 c:/program files/microchip/xc32/v2.50/bin/bin/../../lib/gcc/pic32mx/4.8.3/../../../../pic32mx/lib\software-debug-break.o
 .gnu.attributes
                0x00000010       0x10 build/default/debug/FreeRTOS/Core/event_groups.o
 .gnu.attributes
                0x00000020       0x10 build/default/debug/FreeRTOS/Core/list.o
 .gnu.attributes
                0x00000030       0x10 build/default/debug/FreeRTOS/Core/queue.o
 .gnu.attributes
                0x00000040       0x10 build/default/debug/FreeRTOS/Core/stream_buffer.o
 .gnu.attributes
                0x00000050       0x10 build/default/debug/FreeRTOS/Core/tasks.o
 .gnu.attributes
                0x00000060       0x10 build/default/debug/FreeRTOS/Core/timers.o
 .gnu.attributes
                0x00000070       0x10 build/default/debug/FreeRTOS/Core/portable/MemMang/heap_4.o
 .gnu.attributes
                0x00000080       0x10 build/default/debug/FreeRTOS/Core/portable/MPLAB/PIC32MX/port.o
 .gnu.attributes
                0x00000090       0x10 build/default/debug/FreeRTOS/TCPIP/FreeRTOS_ARP.o
 .gnu.attributes
                0x000000a0       0x10 build/default/debug/FreeRTOS/TCPIP/FreeRTOS_DHCP.o
 .gnu.attributes
                0x000000b0       0x10 build/default/debug/FreeRTOS/TCPIP/FreeRTOS_DNS.o
 .gnu.attributes
                0x000000c0       0x10 build/default/debug/FreeRTOS/TCPIP/FreeRTOS_IP.o
 .gnu.attributes
                0x000000d0       0x10 build/default/debug/FreeRTOS/TCPIP/FreeRTOS_Sockets.o
 .gnu.attributes
                0x000000e0       0x10 build/default/debug/FreeRTOS/TCPIP/FreeRTOS_Stream_Buffer.o
 .gnu.attributes
                0x000000f0       0x10 build/default/debug/FreeRTOS/TCPIP/FreeRTOS_TCP_IP.o
 .gnu.attributes
                0x00000100       0x10 build/default/debug/FreeRTOS/TCPIP/FreeRTOS_TCP_WIN.o
 .gnu.attributes
                0x00000110       0x10 build/default/debug/FreeRTOS/TCPIP/FreeRTOS_UDP_IP.o
 .gnu.attributes
                0x00000120       0x10 build/default/debug/FreeRTOS/TCPIP/portable/BufferManagement/BufferAllocation_2.o
 .gnu.attributes
                0x00000130       0x10 build/default/debug/ConfigPerformance.o
 .gnu.attributes
                0x00000140       0x10 build/default/debug/LAN9250.o
 .gnu.attributes
                0x00000150       0x10 build/default/debug/NetworkInterface_LAN9250.o
 .gnu.attributes
                0x00000160       0x10 build/default/debug/SPI.o
 .gnu.attributes
                0x00000170       0x10 build/default/debug/UART.o
 .gnu.attributes
                0x00000180       0x10 build/default/debug/main.o
 .gnu.attributes
                0x00000190       0x10 build/default/debug/main_blinky.o
 .gnu.attributes
                0x000001a0       0x10 build/default/debug/LED.o
 .gnu.attributes
                0x000001b0       0x10 build/default/debug/FiberComms.o
 .gnu.attributes
                0x000001c0       0x10 build/default/debug/min.o
 .gnu.attributes
                0x000001d0       0x10 c:/program files/microchip/xc32/v2.50/bin/bin/../../lib/gcc/pic32mx/4.8.3\libgcc.a(_udivdi3.o)
 .gnu.attributes
                0x000001e0       0x10 c:/program files/microchip/xc32/v2.50/bin/bin/../../lib/gcc/pic32mx/4.8.3/../../../../pic32mx/lib\libpic32.a(default-bootstrap-exception-handler.o)
 .gnu.attributes
                0x000001f0       0x10 c:/program files/microchip/xc32/v2.50/bin/bin/../../lib/gcc/pic32mx/4.8.3/../../../../pic32mx/lib\libpic32.a(default-on-reset.o)
 .gnu.attributes
                0x00000200       0x10 c:/program files/microchip/xc32/v2.50/bin/bin/../../lib/gcc/pic32mx/4.8.3/../../../../pic32mx/lib\libpic32.a(default-on-bootstrap.o)
 .gnu.attributes
                0x00000210       0x10 c:/program files/microchip/xc32/v2.50/bin/bin/../../lib/gcc/pic32mx/4.8.3/../../../../pic32mx/lib\libpic32.a(defaultinterrupt.o)
 .gnu.attributes
                0x00000220       0x10 c:/program files/microchip/xc32/v2.50/bin/bin/../../lib/gcc/pic32mx/4.8.3/../../../../pic32mx/lib\liblega-c.a(memmove.o)
 .gnu.attributes
                0x00000230       0x10 c:/program files/microchip/xc32/v2.50/bin/bin/../../lib/gcc/pic32mx/4.8.3/../../../../pic32mx/lib\liblega-c.a(rand.o)
 .gnu.attributes
                0x00000240       0x10 c:/program files/microchip/xc32/v2.50/bin/bin/../../lib/gcc/pic32mx/4.8.3/../../../../pic32mx/lib\liblega-c.a(snprintf_cdnopsuxX.eo)
 .gnu.attributes
                0x00000250       0x10 c:/program files/microchip/xc32/v2.50/bin/bin/../../lib/gcc/pic32mx/4.8.3/../../../../pic32mx/lib\liblega-c.a(vsprintf.o)
 .gnu.attributes
                0x00000260       0x10 c:/program files/microchip/xc32/v2.50/bin/bin/../../lib/gcc/pic32mx/4.8.3/../../../../pic32mx/lib\liblega-c.a(stubs.o)
 .gnu.attributes
                0x00000270       0x10 c:/program files/microchip/xc32/v2.50/bin/bin/../../lib/gcc/pic32mx/4.8.3/../../../../pic32mx/lib\liblega-c.a(_doprnt_cdnopsuxX.eo)
 .gnu.attributes
                0x00000280       0x10 c:/program files/microchip/xc32/v2.50/bin/bin/../../lib/gcc/pic32mx/4.8.3/../../../../pic32mx/lib\liblega-c.a(_doprnt.o)
 .gnu.attributes
                0x00000290       0x10 c:/program files/microchip/xc32/v2.50/bin/bin/../../lib/gcc/pic32mx/4.8.3/../../../../pic32mx/lib\liblega-c.a(_iobdata.o)
 .gnu.attributes
                0x000002a0       0x10 c:/program files/microchip/xc32/v2.50/bin/bin/../../lib/gcc/pic32mx/4.8.3/../../../../pic32mx/lib\liblega-c.a(_iobfuncs.o)
 .gnu.attributes
                0x000002b0       0x10 c:/program files/microchip/xc32/v2.50/bin/bin/../../lib/gcc/pic32mx/4.8.3/../../../../pic32mx/lib\liblega-c.a(_iobstring.o)
 .gnu.attributes
                0x000002c0       0x10 c:/program files/microchip/xc32/v2.50/bin/bin/../../lib/gcc/pic32mx/4.8.3/../../../../pic32mx/lib\liblega-c.a(fputc.o)
 .gnu.attributes
                0x000002d0       0x10 c:/program files/microchip/xc32/v2.50/bin/bin/../../lib/gcc/pic32mx/4.8.3/../../../../pic32mx/lib\liblega-c.a(errno.o)
 .gnu.attributes
                0x000002e0       0x10 c:/program files/microchip/xc32/v2.50/bin/bin/../../lib/gcc/pic32mx/4.8.3\libgcc.a(_umoddi3.o)
 .gnu.attributes
                0x000002f0       0x10 c:/program files/microchip/xc32/v2.50/bin/bin/../../lib/gcc/pic32mx/4.8.3/../../../../pic32mx/lib\libpic32.a(_mon_getc.o)
 .gnu.attributes
                0x00000300       0x10 c:/program files/microchip/xc32/v2.50/bin/bin/../../lib/gcc/pic32mx/4.8.3/../../../../pic32mx/lib\libpic32.a(_mon_write.o)
 .gnu.attributes
                0x00000310       0x10 c:/program files/microchip/xc32/v2.50/bin/bin/../../lib/gcc/pic32mx/4.8.3/../../../../pic32mx/lib\libpic32.a(xc32_uart.o)
 .gnu.attributes
                0x00000320       0x10 c:/program files/microchip/xc32/v2.50/bin/bin/../../lib/gcc/pic32mx/4.8.3/../../../../pic32mx/lib\libpic32.a(_mon_putc.o)
LOAD c:/program files/microchip/xc32/v2.50/bin/bin/../../lib/gcc/pic32mx/4.8.3\libgcc.a
START GROUP
LOAD c:/program files/microchip/xc32/v2.50/bin/bin/../../lib/gcc/pic32mx/4.8.3/../../../../pic32mx/lib\libpic32.a
LOAD c:/program files/microchip/xc32/v2.50/bin/bin/../../lib/gcc/pic32mx/4.8.3/../../../../pic32mx/lib\libdebug.a
LOAD c:/program files/microchip/xc32/v2.50/bin/bin/../../lib/gcc/pic32mx/4.8.3/../../../../pic32mx/lib\libpic32.a
LOAD c:/program files/microchip/xc32/v2.50/bin/bin/../../lib/gcc/pic32mx/4.8.3/../../../../pic32mx/lib\liblega-c.a
LOAD c:/program files/microchip/xc32/v2.50/bin/bin/../../lib/gcc/pic32mx/4.8.3/../../../../pic32mx/lib\libm.a
LOAD c:/program files/microchip/xc32/v2.50/bin/bin/../../lib/gcc/pic32mx/4.8.3/../../../../pic32mx/lib\libe.a
LOAD c:/program files/microchip/xc32/v2.50/bin/bin/../../lib/gcc/pic32mx/4.8.3/../../../../pic32mx/lib\libdsp.a
LOAD c:/program files/microchip/xc32/v2.50/bin/bin/../../lib/gcc/pic32mx/4.8.3\libgcc.a
LOAD c:/program files/microchip/xc32/v2.50/bin/bin/../../lib/gcc/pic32mx/4.8.3/../../../../pic32mx/lib\libpic32.a
END GROUP
LOAD c:/program files/microchip/xc32/v2.50/bin/bin/../../lib/gcc/pic32mx/4.8.3\libgcc.a
OUTPUT(dist/default/debug/UD3_Fibernet.X.debug.elf elf32-tradlittlemips)
LOAD stack
LOAD data_init

.reginfo        0x00000000       0x18
 .reginfo       0x00000000       0x18 c:/program files/microchip/xc32/v2.50/bin/bin/../../lib/gcc/pic32mx/4.8.3/../../../../pic32mx/lib\software-debug-break.o

.stack          0xa000ead8      0x400
 .stack         0xa000ead8      0x400 stack

.bss            0xa0000424     0xdf5c
 .bss           0xa0000424     0xd6d8 build/default/debug/FreeRTOS/Core/portable/MemMang/heap_4.o
 .bss           0xa000dafc      0x884 build/default/debug/FreeRTOS/TCPIP/portable/BufferManagement/BufferAllocation_2.o

.bss            0xa000e380      0x3e8
 .bss           0xa000e380      0x3e8 build/default/debug/FreeRTOS/Core/portable/MPLAB/PIC32MX/port.o
                0xa000e380                xISRStack

.data           0xa000e768       0xd4
 .data          0xa000e768       0xd4 c:/program files/microchip/xc32/v2.50/bin/bin/../../lib/gcc/pic32mx/4.8.3/../../../../pic32mx/lib\liblega-c.a(_iobdata.o)

.bss            0xa000e83c       0xf8
 .bss           0xa000e83c       0x88 c:/program files/microchip/xc32/v2.50/bin/bin/../../lib/gcc/pic32mx/4.8.3/../../../../pic32mx/lib\liblega-c.a(_iobdata.o)
 .bss           0xa000e8c4       0x70 build/default/debug/FreeRTOS/TCPIP/FreeRTOS_DNS.o

.bss            0xa000e934       0xac
 .bss           0xa000e934       0x64 build/default/debug/FreeRTOS/TCPIP/FreeRTOS_IP.o
                0xa000e934                xNetworkAddressing
                0xa000e948                xDefaultAddressing
 .bss           0xa000e998       0x48 build/default/debug/FreeRTOS/TCPIP/FreeRTOS_ARP.o

.data           0xa000e9e0       0x30
 .data          0xa000e9e0       0x30 c:/program files/microchip/xc32/v2.50/bin/bin/../../lib/gcc/pic32mx/4.8.3/../../../../pic32mx/lib\liblega-c.a(rand.o)

.bss            0xa000ea10       0x48
 .bss           0xa000ea10       0x28 build/default/debug/FreeRTOS/Core/timers.o
 .bss           0xa000ea38       0x20 build/default/debug/FreeRTOS/TCPIP/FreeRTOS_DHCP.o

.data           0xa000ea58       0x18
 .data          0xa000ea58       0x18 build/default/debug/FreeRTOS/TCPIP/FreeRTOS_UDP_IP.o
                0xa000ea58                xDefaultPartUDPPacketHeader

.bss            0xa000ea70       0x28
 .bss           0xa000ea70       0x14 build/default/debug/FreeRTOS/TCPIP/FreeRTOS_Sockets.o
 .bss           0xa000ea84       0x14 build/default/debug/FreeRTOS/TCPIP/FreeRTOS_TCP_WIN.o

.bss            0xa000ea98       0x10
 .bss           0xa000ea98        0xc build/default/debug/FreeRTOS/TCPIP/FreeRTOS_TCP_IP.o
 .bss           0xa000eaa4        0x4 c:/program files/microchip/xc32/v2.50/bin/bin/../../lib/gcc/pic32mx/4.8.3/../../../../pic32mx/lib\liblega-c.a(stubs.o)
                0xa000eaa4                __isthreaded

.bss%z1         0x00000000        0x0
 .bss           0x00000000        0x0 c:/program files/microchip/xc32/v2.50/bin/bin/../../lib/gcc/pic32mx/4.8.3/../../../../pic32mx/lib\libpic32.a(_mon_putc.o)

.data%z2        0x00000000        0x0
 .data          0x00000000        0x0 c:/program files/microchip/xc32/v2.50/bin/bin/../../lib/gcc/pic32mx/4.8.3/../../../../pic32mx/lib\libpic32.a(_mon_putc.o)

.bss%z3         0x00000000        0x0
 .bss           0x00000000        0x0 c:/program files/microchip/xc32/v2.50/bin/bin/../../lib/gcc/pic32mx/4.8.3/../../../../pic32mx/lib\libpic32.a(xc32_uart.o)

.data%z4        0x00000000        0x0
 .data          0x00000000        0x0 c:/program files/microchip/xc32/v2.50/bin/bin/../../lib/gcc/pic32mx/4.8.3/../../../../pic32mx/lib\libpic32.a(xc32_uart.o)

.bss%z5         0x00000000        0x0
 .bss           0x00000000        0x0 c:/program files/microchip/xc32/v2.50/bin/bin/../../lib/gcc/pic32mx/4.8.3/../../../../pic32mx/lib\libpic32.a(_mon_write.o)

.data%z6        0x00000000        0x0
 .data          0x00000000        0x0 c:/program files/microchip/xc32/v2.50/bin/bin/../../lib/gcc/pic32mx/4.8.3/../../../../pic32mx/lib\libpic32.a(_mon_write.o)

.bss%z7         0x00000000        0x0
 .bss           0x00000000        0x0 c:/program files/microchip/xc32/v2.50/bin/bin/../../lib/gcc/pic32mx/4.8.3/../../../../pic32mx/lib\libpic32.a(_mon_getc.o)

.data%z8        0x00000000        0x0
 .data          0x00000000        0x0 c:/program files/microchip/xc32/v2.50/bin/bin/../../lib/gcc/pic32mx/4.8.3/../../../../pic32mx/lib\libpic32.a(_mon_getc.o)

.bss%z9         0x00000000        0x0
 .bss           0x00000000        0x0 c:/program files/microchip/xc32/v2.50/bin/bin/../../lib/gcc/pic32mx/4.8.3\libgcc.a(_umoddi3.o)

.data%z10       0x00000000        0x0
 .data          0x00000000        0x0 c:/program files/microchip/xc32/v2.50/bin/bin/../../lib/gcc/pic32mx/4.8.3\libgcc.a(_umoddi3.o)

.bss%z11        0x00000000        0x0
 .bss           0x00000000        0x0 c:/program files/microchip/xc32/v2.50/bin/bin/../../lib/gcc/pic32mx/4.8.3/../../../../pic32mx/lib\libm.a(litodp.o)

.data%z12       0x00000000        0x0
 .data          0x00000000        0x0 c:/program files/microchip/xc32/v2.50/bin/bin/../../lib/gcc/pic32mx/4.8.3/../../../../pic32mx/lib\libm.a(litodp.o)

.bss%z13        0x00000000        0x0
 .bss           0x00000000        0x0 c:/program files/microchip/xc32/v2.50/bin/bin/../../lib/gcc/pic32mx/4.8.3/../../../../pic32mx/lib\libm.a(dptoli.o)

.data%z14       0x00000000        0x0
 .data          0x00000000        0x0 c:/program files/microchip/xc32/v2.50/bin/bin/../../lib/gcc/pic32mx/4.8.3/../../../../pic32mx/lib\libm.a(dptoli.o)

.bss%z15        0x00000000        0x0
 .bss           0x00000000        0x0 c:/program files/microchip/xc32/v2.50/bin/bin/../../lib/gcc/pic32mx/4.8.3/../../../../pic32mx/lib\libm.a(dpcmp.o)

.data%z16       0x00000000        0x0
 .data          0x00000000        0x0 c:/program files/microchip/xc32/v2.50/bin/bin/../../lib/gcc/pic32mx/4.8.3/../../../../pic32mx/lib\libm.a(dpcmp.o)

.bss%z17        0x00000000        0x0
 .bss           0x00000000        0x0 c:/program files/microchip/xc32/v2.50/bin/bin/../../lib/gcc/pic32mx/4.8.3/../../../../pic32mx/lib\libm.a(dp32subadd.o)

.data%z18       0x00000000        0x0
 .data          0x00000000        0x0 c:/program files/microchip/xc32/v2.50/bin/bin/../../lib/gcc/pic32mx/4.8.3/../../../../pic32mx/lib\libm.a(dp32subadd.o)

.bss%z19        0x00000000        0x0
 .bss           0x00000000        0x0 c:/program files/microchip/xc32/v2.50/bin/bin/../../lib/gcc/pic32mx/4.8.3/../../../../pic32mx/lib\libm.a(dp32mul.o)

.data%z20       0x00000000        0x0
 .data          0x00000000        0x0 c:/program files/microchip/xc32/v2.50/bin/bin/../../lib/gcc/pic32mx/4.8.3/../../../../pic32mx/lib\libm.a(dp32mul.o)

.bss%z21        0x00000000        0x0
 .bss           0x00000000        0x0 c:/program files/microchip/xc32/v2.50/bin/bin/../../lib/gcc/pic32mx/4.8.3/../../../../pic32mx/lib\libm.a(dp32div.o)

.data%z22       0x00000000        0x0
 .data          0x00000000        0x0 c:/program files/microchip/xc32/v2.50/bin/bin/../../lib/gcc/pic32mx/4.8.3/../../../../pic32mx/lib\libm.a(dp32div.o)

.bss%z23        0x00000000        0x0
 .bss           0x00000000        0x0 c:/program files/microchip/xc32/v2.50/bin/bin/../../lib/gcc/pic32mx/4.8.3/../../../../pic32mx/lib\libm.a(dpmodf.o)

.data%z24       0x00000000        0x0
 .data          0x00000000        0x0 c:/program files/microchip/xc32/v2.50/bin/bin/../../lib/gcc/pic32mx/4.8.3/../../../../pic32mx/lib\libm.a(dpmodf.o)

.bss%z25        0x00000000        0x0
 .bss           0x00000000        0x0 c:/program files/microchip/xc32/v2.50/bin/bin/../../lib/gcc/pic32mx/4.8.3/../../../../pic32mx/lib\liblega-c.a(errno.o)

.data%z26       0x00000000        0x0
 .data          0x00000000        0x0 c:/program files/microchip/xc32/v2.50/bin/bin/../../lib/gcc/pic32mx/4.8.3/../../../../pic32mx/lib\liblega-c.a(errno.o)

.bss%z27        0x00000000        0x0
 .bss           0x00000000        0x0 c:/program files/microchip/xc32/v2.50/bin/bin/../../lib/gcc/pic32mx/4.8.3/../../../../pic32mx/lib\liblega-c.a(fputc.o)

.data%z28       0x00000000        0x0
 .data          0x00000000        0x0 c:/program files/microchip/xc32/v2.50/bin/bin/../../lib/gcc/pic32mx/4.8.3/../../../../pic32mx/lib\liblega-c.a(fputc.o)

.bss%z29        0x00000000        0x0
 .bss           0x00000000        0x0 c:/program files/microchip/xc32/v2.50/bin/bin/../../lib/gcc/pic32mx/4.8.3/../../../../pic32mx/lib\liblega-c.a(_iobstring.o)

.data%z30       0x00000000        0x0
 .data          0x00000000        0x0 c:/program files/microchip/xc32/v2.50/bin/bin/../../lib/gcc/pic32mx/4.8.3/../../../../pic32mx/lib\liblega-c.a(_iobstring.o)

.bss%z31        0x00000000        0x0
 .bss           0x00000000        0x0 c:/program files/microchip/xc32/v2.50/bin/bin/../../lib/gcc/pic32mx/4.8.3/../../../../pic32mx/lib\liblega-c.a(_iobfuncs.o)

.data%z32       0x00000000        0x0
 .data          0x00000000        0x0 c:/program files/microchip/xc32/v2.50/bin/bin/../../lib/gcc/pic32mx/4.8.3/../../../../pic32mx/lib\liblega-c.a(_iobfuncs.o)

.bss%z33        0x00000000        0x0
 .bss           0x00000000        0x0 c:/program files/microchip/xc32/v2.50/bin/bin/../../lib/gcc/pic32mx/4.8.3/../../../../pic32mx/lib\liblega-c.a(_doprnt.o)

.data%z34       0x00000000        0x0
 .data          0x00000000        0x0 c:/program files/microchip/xc32/v2.50/bin/bin/../../lib/gcc/pic32mx/4.8.3/../../../../pic32mx/lib\liblega-c.a(_doprnt.o)

.bss%z35        0x00000000        0x0
 .bss           0x00000000        0x0 c:/program files/microchip/xc32/v2.50/bin/bin/../../lib/gcc/pic32mx/4.8.3/../../../../pic32mx/lib\liblega-c.a(_doprnt_cdnopsuxX.eo)

.data%z36       0x00000000        0x0
 .data          0x00000000        0x0 c:/program files/microchip/xc32/v2.50/bin/bin/../../lib/gcc/pic32mx/4.8.3/../../../../pic32mx/lib\liblega-c.a(_doprnt_cdnopsuxX.eo)

.data%z37       0x00000000        0x0
 .data          0x00000000        0x0 c:/program files/microchip/xc32/v2.50/bin/bin/../../lib/gcc/pic32mx/4.8.3/../../../../pic32mx/lib\liblega-c.a(stubs.o)

.bss%z38        0x00000000        0x0
 .bss           0x00000000        0x0 c:/program files/microchip/xc32/v2.50/bin/bin/../../lib/gcc/pic32mx/4.8.3/../../../../pic32mx/lib\liblega-c.a(vsprintf.o)

.data%z39       0x00000000        0x0
 .data          0x00000000        0x0 c:/program files/microchip/xc32/v2.50/bin/bin/../../lib/gcc/pic32mx/4.8.3/../../../../pic32mx/lib\liblega-c.a(vsprintf.o)

.bss%z40        0x00000000        0x0
 .bss           0x00000000        0x0 c:/program files/microchip/xc32/v2.50/bin/bin/../../lib/gcc/pic32mx/4.8.3/../../../../pic32mx/lib\liblega-c.a(snprintf_cdnopsuxX.eo)

.data%z41       0x00000000        0x0
 .data          0x00000000        0x0 c:/program files/microchip/xc32/v2.50/bin/bin/../../lib/gcc/pic32mx/4.8.3/../../../../pic32mx/lib\liblega-c.a(snprintf_cdnopsuxX.eo)

.bss%z42        0x00000000        0x0
 .bss           0x00000000        0x0 c:/program files/microchip/xc32/v2.50/bin/bin/../../lib/gcc/pic32mx/4.8.3/../../../../pic32mx/lib\liblega-c.a(rand.o)

.bss%z43        0x00000000        0x0
 .bss           0x00000000        0x0 c:/program files/microchip/xc32/v2.50/bin/bin/../../lib/gcc/pic32mx/4.8.3/../../../../pic32mx/lib\liblega-c.a(memmove.o)

.data%z44       0x00000000        0x0
 .data          0x00000000        0x0 c:/program files/microchip/xc32/v2.50/bin/bin/../../lib/gcc/pic32mx/4.8.3/../../../../pic32mx/lib\liblega-c.a(memmove.o)

.bss%z45        0x00000000        0x0
 .bss           0x00000000        0x0 c:/program files/microchip/xc32/v2.50/bin/bin/../../lib/gcc/pic32mx/4.8.3/../../../../pic32mx/lib\libpic32.a(defaultinterrupt.o)

.data%z46       0x00000000        0x0
 .data          0x00000000        0x0 c:/program files/microchip/xc32/v2.50/bin/bin/../../lib/gcc/pic32mx/4.8.3/../../../../pic32mx/lib\libpic32.a(defaultinterrupt.o)

.bss%z47        0x00000000        0x0
 .bss           0x00000000        0x0 c:/program files/microchip/xc32/v2.50/bin/bin/../../lib/gcc/pic32mx/4.8.3/../../../../pic32mx/lib\libpic32.a(vector39.o)

.data%z48       0x00000000        0x0
 .data          0x00000000        0x0 c:/program files/microchip/xc32/v2.50/bin/bin/../../lib/gcc/pic32mx/4.8.3/../../../../pic32mx/lib\libpic32.a(vector39.o)

.bss%z49        0x00000000        0x0
 .bss           0x00000000        0x0 c:/program files/microchip/xc32/v2.50/bin/bin/../../lib/gcc/pic32mx/4.8.3/../../../../pic32mx/lib\libpic32.a(vector38.o)

.data%z50       0x00000000        0x0
 .data          0x00000000        0x0 c:/program files/microchip/xc32/v2.50/bin/bin/../../lib/gcc/pic32mx/4.8.3/../../../../pic32mx/lib\libpic32.a(vector38.o)

.bss%z51        0x00000000        0x0
 .bss           0x00000000        0x0 c:/program files/microchip/xc32/v2.50/bin/bin/../../lib/gcc/pic32mx/4.8.3/../../../../pic32mx/lib\libpic32.a(vector37.o)

.data%z52       0x00000000        0x0
 .data          0x00000000        0x0 c:/program files/microchip/xc32/v2.50/bin/bin/../../lib/gcc/pic32mx/4.8.3/../../../../pic32mx/lib\libpic32.a(vector37.o)

.bss%z53        0x00000000        0x0
 .bss           0x00000000        0x0 c:/program files/microchip/xc32/v2.50/bin/bin/../../lib/gcc/pic32mx/4.8.3/../../../../pic32mx/lib\libpic32.a(vector36.o)

.data%z54       0x00000000        0x0
 .data          0x00000000        0x0 c:/program files/microchip/xc32/v2.50/bin/bin/../../lib/gcc/pic32mx/4.8.3/../../../../pic32mx/lib\libpic32.a(vector36.o)

.bss%z55        0x00000000        0x0
 .bss           0x00000000        0x0 c:/program files/microchip/xc32/v2.50/bin/bin/../../lib/gcc/pic32mx/4.8.3/../../../../pic32mx/lib\libpic32.a(vector35.o)

.data%z56       0x00000000        0x0
 .data          0x00000000        0x0 c:/program files/microchip/xc32/v2.50/bin/bin/../../lib/gcc/pic32mx/4.8.3/../../../../pic32mx/lib\libpic32.a(vector35.o)

.bss%z57        0x00000000        0x0
 .bss           0x00000000        0x0 c:/program files/microchip/xc32/v2.50/bin/bin/../../lib/gcc/pic32mx/4.8.3/../../../../pic32mx/lib\libpic32.a(vector34.o)

.data%z58       0x00000000        0x0
 .data          0x00000000        0x0 c:/program files/microchip/xc32/v2.50/bin/bin/../../lib/gcc/pic32mx/4.8.3/../../../../pic32mx/lib\libpic32.a(vector34.o)

.bss%z59        0x00000000        0x0
 .bss           0x00000000        0x0 c:/program files/microchip/xc32/v2.50/bin/bin/../../lib/gcc/pic32mx/4.8.3/../../../../pic32mx/lib\libpic32.a(vector33.o)

.data%z60       0x00000000        0x0
 .data          0x00000000        0x0 c:/program files/microchip/xc32/v2.50/bin/bin/../../lib/gcc/pic32mx/4.8.3/../../../../pic32mx/lib\libpic32.a(vector33.o)

.bss%z61        0x00000000        0x0
 .bss           0x00000000        0x0 c:/program files/microchip/xc32/v2.50/bin/bin/../../lib/gcc/pic32mx/4.8.3/../../../../pic32mx/lib\libpic32.a(vector32.o)

.data%z62       0x00000000        0x0
 .data          0x00000000        0x0 c:/program files/microchip/xc32/v2.50/bin/bin/../../lib/gcc/pic32mx/4.8.3/../../../../pic32mx/lib\libpic32.a(vector32.o)

.bss%z63        0x00000000        0x0
 .bss           0x00000000        0x0 c:/program files/microchip/xc32/v2.50/bin/bin/../../lib/gcc/pic32mx/4.8.3/../../../../pic32mx/lib\libpic32.a(vector31.o)

.data%z64       0x00000000        0x0
 .data          0x00000000        0x0 c:/program files/microchip/xc32/v2.50/bin/bin/../../lib/gcc/pic32mx/4.8.3/../../../../pic32mx/lib\libpic32.a(vector31.o)

.bss%z65        0x00000000        0x0
 .bss           0x00000000        0x0 c:/program files/microchip/xc32/v2.50/bin/bin/../../lib/gcc/pic32mx/4.8.3/../../../../pic32mx/lib\libpic32.a(vector30.o)

.data%z66       0x00000000        0x0
 .data          0x00000000        0x0 c:/program files/microchip/xc32/v2.50/bin/bin/../../lib/gcc/pic32mx/4.8.3/../../../../pic32mx/lib\libpic32.a(vector30.o)

.bss%z67        0x00000000        0x0
 .bss           0x00000000        0x0 c:/program files/microchip/xc32/v2.50/bin/bin/../../lib/gcc/pic32mx/4.8.3/../../../../pic32mx/lib\libpic32.a(vector29.o)

.data%z68       0x00000000        0x0
 .data          0x00000000        0x0 c:/program files/microchip/xc32/v2.50/bin/bin/../../lib/gcc/pic32mx/4.8.3/../../../../pic32mx/lib\libpic32.a(vector29.o)

.bss%z69        0x00000000        0x0
 .bss           0x00000000        0x0 c:/program files/microchip/xc32/v2.50/bin/bin/../../lib/gcc/pic32mx/4.8.3/../../../../pic32mx/lib\libpic32.a(vector28.o)

.data%z70       0x00000000        0x0
 .data          0x00000000        0x0 c:/program files/microchip/xc32/v2.50/bin/bin/../../lib/gcc/pic32mx/4.8.3/../../../../pic32mx/lib\libpic32.a(vector28.o)

.bss%z71        0x00000000        0x0
 .bss           0x00000000        0x0 c:/program files/microchip/xc32/v2.50/bin/bin/../../lib/gcc/pic32mx/4.8.3/../../../../pic32mx/lib\libpic32.a(vector27.o)

.data%z72       0x00000000        0x0
 .data          0x00000000        0x0 c:/program files/microchip/xc32/v2.50/bin/bin/../../lib/gcc/pic32mx/4.8.3/../../../../pic32mx/lib\libpic32.a(vector27.o)

.bss%z73        0x00000000        0x0
 .bss           0x00000000        0x0 c:/program files/microchip/xc32/v2.50/bin/bin/../../lib/gcc/pic32mx/4.8.3/../../../../pic32mx/lib\libpic32.a(vector26.o)

.data%z74       0x00000000        0x0
 .data          0x00000000        0x0 c:/program files/microchip/xc32/v2.50/bin/bin/../../lib/gcc/pic32mx/4.8.3/../../../../pic32mx/lib\libpic32.a(vector26.o)

.bss%z75        0x00000000        0x0
 .bss           0x00000000        0x0 c:/program files/microchip/xc32/v2.50/bin/bin/../../lib/gcc/pic32mx/4.8.3/../../../../pic32mx/lib\libpic32.a(vector25.o)

.data%z76       0x00000000        0x0
 .data          0x00000000        0x0 c:/program files/microchip/xc32/v2.50/bin/bin/../../lib/gcc/pic32mx/4.8.3/../../../../pic32mx/lib\libpic32.a(vector25.o)

.bss%z77        0x00000000        0x0
 .bss           0x00000000        0x0 c:/program files/microchip/xc32/v2.50/bin/bin/../../lib/gcc/pic32mx/4.8.3/../../../../pic32mx/lib\libpic32.a(vector24.o)

.data%z78       0x00000000        0x0
 .data          0x00000000        0x0 c:/program files/microchip/xc32/v2.50/bin/bin/../../lib/gcc/pic32mx/4.8.3/../../../../pic32mx/lib\libpic32.a(vector24.o)

.bss%z79        0x00000000        0x0
 .bss           0x00000000        0x0 c:/program files/microchip/xc32/v2.50/bin/bin/../../lib/gcc/pic32mx/4.8.3/../../../../pic32mx/lib\libpic32.a(vector23.o)

.data%z80       0x00000000        0x0
 .data          0x00000000        0x0 c:/program files/microchip/xc32/v2.50/bin/bin/../../lib/gcc/pic32mx/4.8.3/../../../../pic32mx/lib\libpic32.a(vector23.o)

.bss%z81        0x00000000        0x0
 .bss           0x00000000        0x0 c:/program files/microchip/xc32/v2.50/bin/bin/../../lib/gcc/pic32mx/4.8.3/../../../../pic32mx/lib\libpic32.a(vector22.o)

.data%z82       0x00000000        0x0
 .data          0x00000000        0x0 c:/program files/microchip/xc32/v2.50/bin/bin/../../lib/gcc/pic32mx/4.8.3/../../../../pic32mx/lib\libpic32.a(vector22.o)

.bss%z83        0x00000000        0x0
 .bss           0x00000000        0x0 c:/program files/microchip/xc32/v2.50/bin/bin/../../lib/gcc/pic32mx/4.8.3/../../../../pic32mx/lib\libpic32.a(vector21.o)

.data%z84       0x00000000        0x0
 .data          0x00000000        0x0 c:/program files/microchip/xc32/v2.50/bin/bin/../../lib/gcc/pic32mx/4.8.3/../../../../pic32mx/lib\libpic32.a(vector21.o)

.bss%z85        0x00000000        0x0
 .bss           0x00000000        0x0 c:/program files/microchip/xc32/v2.50/bin/bin/../../lib/gcc/pic32mx/4.8.3/../../../../pic32mx/lib\libpic32.a(vector20.o)

.data%z86       0x00000000        0x0
 .data          0x00000000        0x0 c:/program files/microchip/xc32/v2.50/bin/bin/../../lib/gcc/pic32mx/4.8.3/../../../../pic32mx/lib\libpic32.a(vector20.o)

.bss%z87        0x00000000        0x0
 .bss           0x00000000        0x0 c:/program files/microchip/xc32/v2.50/bin/bin/../../lib/gcc/pic32mx/4.8.3/../../../../pic32mx/lib\libpic32.a(vector19.o)

.data%z88       0x00000000        0x0
 .data          0x00000000        0x0 c:/program files/microchip/xc32/v2.50/bin/bin/../../lib/gcc/pic32mx/4.8.3/../../../../pic32mx/lib\libpic32.a(vector19.o)

.bss%z89        0x00000000        0x0
 .bss           0x00000000        0x0 c:/program files/microchip/xc32/v2.50/bin/bin/../../lib/gcc/pic32mx/4.8.3/../../../../pic32mx/lib\libpic32.a(vector18.o)

.data%z90       0x00000000        0x0
 .data          0x00000000        0x0 c:/program files/microchip/xc32/v2.50/bin/bin/../../lib/gcc/pic32mx/4.8.3/../../../../pic32mx/lib\libpic32.a(vector18.o)

.bss%z91        0x00000000        0x0
 .bss           0x00000000        0x0 c:/program files/microchip/xc32/v2.50/bin/bin/../../lib/gcc/pic32mx/4.8.3/../../../../pic32mx/lib\libpic32.a(vector17.o)

.data%z92       0x00000000        0x0
 .data          0x00000000        0x0 c:/program files/microchip/xc32/v2.50/bin/bin/../../lib/gcc/pic32mx/4.8.3/../../../../pic32mx/lib\libpic32.a(vector17.o)

.bss%z93        0x00000000        0x0
 .bss           0x00000000        0x0 c:/program files/microchip/xc32/v2.50/bin/bin/../../lib/gcc/pic32mx/4.8.3/../../../../pic32mx/lib\libpic32.a(vector16.o)

.data%z94       0x00000000        0x0
 .data          0x00000000        0x0 c:/program files/microchip/xc32/v2.50/bin/bin/../../lib/gcc/pic32mx/4.8.3/../../../../pic32mx/lib\libpic32.a(vector16.o)

.bss%z95        0x00000000        0x0
 .bss           0x00000000        0x0 c:/program files/microchip/xc32/v2.50/bin/bin/../../lib/gcc/pic32mx/4.8.3/../../../../pic32mx/lib\libpic32.a(vector15.o)

.data%z96       0x00000000        0x0
 .data          0x00000000        0x0 c:/program files/microchip/xc32/v2.50/bin/bin/../../lib/gcc/pic32mx/4.8.3/../../../../pic32mx/lib\libpic32.a(vector15.o)

.bss%z97        0x00000000        0x0
 .bss           0x00000000        0x0 c:/program files/microchip/xc32/v2.50/bin/bin/../../lib/gcc/pic32mx/4.8.3/../../../../pic32mx/lib\libpic32.a(vector14.o)

.data%z98       0x00000000        0x0
 .data          0x00000000        0x0 c:/program files/microchip/xc32/v2.50/bin/bin/../../lib/gcc/pic32mx/4.8.3/../../../../pic32mx/lib\libpic32.a(vector14.o)

.bss%z99        0x00000000        0x0
 .bss           0x00000000        0x0 c:/program files/microchip/xc32/v2.50/bin/bin/../../lib/gcc/pic32mx/4.8.3/../../../../pic32mx/lib\libpic32.a(vector13.o)

.data%z100      0x00000000        0x0
 .data          0x00000000        0x0 c:/program files/microchip/xc32/v2.50/bin/bin/../../lib/gcc/pic32mx/4.8.3/../../../../pic32mx/lib\libpic32.a(vector13.o)

.bss%z101       0x00000000        0x0
 .bss           0x00000000        0x0 c:/program files/microchip/xc32/v2.50/bin/bin/../../lib/gcc/pic32mx/4.8.3/../../../../pic32mx/lib\libpic32.a(vector12.o)

.data%z102      0x00000000        0x0
 .data          0x00000000        0x0 c:/program files/microchip/xc32/v2.50/bin/bin/../../lib/gcc/pic32mx/4.8.3/../../../../pic32mx/lib\libpic32.a(vector12.o)

.bss%z103       0x00000000        0x0
 .bss           0x00000000        0x0 c:/program files/microchip/xc32/v2.50/bin/bin/../../lib/gcc/pic32mx/4.8.3/../../../../pic32mx/lib\libpic32.a(vector11.o)

.data%z104      0x00000000        0x0
 .data          0x00000000        0x0 c:/program files/microchip/xc32/v2.50/bin/bin/../../lib/gcc/pic32mx/4.8.3/../../../../pic32mx/lib\libpic32.a(vector11.o)

.bss%z105       0x00000000        0x0
 .bss           0x00000000        0x0 c:/program files/microchip/xc32/v2.50/bin/bin/../../lib/gcc/pic32mx/4.8.3/../../../../pic32mx/lib\libpic32.a(vector10.o)

.data%z106      0x00000000        0x0
 .data          0x00000000        0x0 c:/program files/microchip/xc32/v2.50/bin/bin/../../lib/gcc/pic32mx/4.8.3/../../../../pic32mx/lib\libpic32.a(vector10.o)

.bss%z107       0x00000000        0x0
 .bss           0x00000000        0x0 c:/program files/microchip/xc32/v2.50/bin/bin/../../lib/gcc/pic32mx/4.8.3/../../../../pic32mx/lib\libpic32.a(vector9.o)

.data%z108      0x00000000        0x0
 .data          0x00000000        0x0 c:/program files/microchip/xc32/v2.50/bin/bin/../../lib/gcc/pic32mx/4.8.3/../../../../pic32mx/lib\libpic32.a(vector9.o)

.bss%z109       0x00000000        0x0
 .bss           0x00000000        0x0 c:/program files/microchip/xc32/v2.50/bin/bin/../../lib/gcc/pic32mx/4.8.3/../../../../pic32mx/lib\libpic32.a(vector8.o)

.data%z110      0x00000000        0x0
 .data          0x00000000        0x0 c:/program files/microchip/xc32/v2.50/bin/bin/../../lib/gcc/pic32mx/4.8.3/../../../../pic32mx/lib\libpic32.a(vector8.o)

.bss%z111       0x00000000        0x0
 .bss           0x00000000        0x0 c:/program files/microchip/xc32/v2.50/bin/bin/../../lib/gcc/pic32mx/4.8.3/../../../../pic32mx/lib\libpic32.a(vector7.o)

.data%z112      0x00000000        0x0
 .data          0x00000000        0x0 c:/program files/microchip/xc32/v2.50/bin/bin/../../lib/gcc/pic32mx/4.8.3/../../../../pic32mx/lib\libpic32.a(vector7.o)

.bss%z113       0x00000000        0x0
 .bss           0x00000000        0x0 c:/program files/microchip/xc32/v2.50/bin/bin/../../lib/gcc/pic32mx/4.8.3/../../../../pic32mx/lib\libpic32.a(vector6.o)

.data%z114      0x00000000        0x0
 .data          0x00000000        0x0 c:/program files/microchip/xc32/v2.50/bin/bin/../../lib/gcc/pic32mx/4.8.3/../../../../pic32mx/lib\libpic32.a(vector6.o)

.bss%z115       0x00000000        0x0
 .bss           0x00000000        0x0 c:/program files/microchip/xc32/v2.50/bin/bin/../../lib/gcc/pic32mx/4.8.3/../../../../pic32mx/lib\libpic32.a(vector5.o)

.data%z116      0x00000000        0x0
 .data          0x00000000        0x0 c:/program files/microchip/xc32/v2.50/bin/bin/../../lib/gcc/pic32mx/4.8.3/../../../../pic32mx/lib\libpic32.a(vector5.o)

.bss%z117       0x00000000        0x0
 .bss           0x00000000        0x0 c:/program files/microchip/xc32/v2.50/bin/bin/../../lib/gcc/pic32mx/4.8.3/../../../../pic32mx/lib\libpic32.a(vector3.o)

.data%z118      0x00000000        0x0
 .data          0x00000000        0x0 c:/program files/microchip/xc32/v2.50/bin/bin/../../lib/gcc/pic32mx/4.8.3/../../../../pic32mx/lib\libpic32.a(vector3.o)

.bss%z119       0x00000000        0x0
 .bss           0x00000000        0x0 c:/program files/microchip/xc32/v2.50/bin/bin/../../lib/gcc/pic32mx/4.8.3/../../../../pic32mx/lib\libpic32.a(vector2.o)

.data%z120      0x00000000        0x0
 .data          0x00000000        0x0 c:/program files/microchip/xc32/v2.50/bin/bin/../../lib/gcc/pic32mx/4.8.3/../../../../pic32mx/lib\libpic32.a(vector2.o)

.bss%z121       0x00000000        0x0
 .bss           0x00000000        0x0 c:/program files/microchip/xc32/v2.50/bin/bin/../../lib/gcc/pic32mx/4.8.3/../../../../pic32mx/lib\libpic32.a(vector0.o)

.data%z122      0x00000000        0x0
 .data          0x00000000        0x0 c:/program files/microchip/xc32/v2.50/bin/bin/../../lib/gcc/pic32mx/4.8.3/../../../../pic32mx/lib\libpic32.a(vector0.o)

.bss%z123       0x00000000        0x0
 .bss           0x00000000        0x0 c:/program files/microchip/xc32/v2.50/bin/bin/../../lib/gcc/pic32mx/4.8.3/../../../../pic32mx/lib\libpic32.a(general-exception.o)

.data%z124      0x00000000        0x0
 .data          0x00000000        0x0 c:/program files/microchip/xc32/v2.50/bin/bin/../../lib/gcc/pic32mx/4.8.3/../../../../pic32mx/lib\libpic32.a(general-exception.o)

.bss%z125       0x00000000        0x0
 .bss           0x00000000        0x0 c:/program files/microchip/xc32/v2.50/bin/bin/../../lib/gcc/pic32mx/4.8.3/../../../../pic32mx/lib\libpic32.a(pic32_data_init.o)

.data%z126      0x00000000        0x0
 .data          0x00000000        0x0 c:/program files/microchip/xc32/v2.50/bin/bin/../../lib/gcc/pic32mx/4.8.3/../../../../pic32mx/lib\libpic32.a(pic32_data_init.o)

.bss%z127       0x00000000        0x0
 .bss           0x00000000        0x0 c:/program files/microchip/xc32/v2.50/bin/bin/../../lib/gcc/pic32mx/4.8.3/../../../../pic32mx/lib\libpic32.a(default-nmi-handler.o)

.data%z128      0x00000000        0x0
 .data          0x00000000        0x0 c:/program files/microchip/xc32/v2.50/bin/bin/../../lib/gcc/pic32mx/4.8.3/../../../../pic32mx/lib\libpic32.a(default-nmi-handler.o)

.bss%z129       0x00000000        0x0
 .bss           0x00000000        0x0 c:/program files/microchip/xc32/v2.50/bin/bin/../../lib/gcc/pic32mx/4.8.3/../../../../pic32mx/lib\libpic32.a(default-on-bootstrap.o)

.data%z130      0x00000000        0x0
 .data          0x00000000        0x0 c:/program files/microchip/xc32/v2.50/bin/bin/../../lib/gcc/pic32mx/4.8.3/../../../../pic32mx/lib\libpic32.a(default-on-bootstrap.o)

.bss%z131       0x00000000        0x0
 .bss           0x00000000        0x0 c:/program files/microchip/xc32/v2.50/bin/bin/../../lib/gcc/pic32mx/4.8.3/../../../../pic32mx/lib\libpic32.a(default-on-reset.o)

.data%z132      0x00000000        0x0
 .data          0x00000000        0x0 c:/program files/microchip/xc32/v2.50/bin/bin/../../lib/gcc/pic32mx/4.8.3/../../../../pic32mx/lib\libpic32.a(default-on-reset.o)

.bss%z133       0x00000000        0x0
 .bss           0x00000000        0x0 c:/program files/microchip/xc32/v2.50/bin/bin/../../lib/gcc/pic32mx/4.8.3/../../../../pic32mx/lib\libpic32.a(default-bootstrap-exception-handler.o)

.data%z134      0x00000000        0x0
 .data          0x00000000        0x0 c:/program files/microchip/xc32/v2.50/bin/bin/../../lib/gcc/pic32mx/4.8.3/../../../../pic32mx/lib\libpic32.a(default-bootstrap-exception-handler.o)

.bss%z135       0x00000000        0x0
 .bss           0x00000000        0x0 c:/program files/microchip/xc32/v2.50/bin/bin/../../lib/gcc/pic32mx/4.8.3/../../../../pic32mx/lib\libpic32.a(strlen.o)

.data%z136      0x00000000        0x0
 .data          0x00000000        0x0 c:/program files/microchip/xc32/v2.50/bin/bin/../../lib/gcc/pic32mx/4.8.3/../../../../pic32mx/lib\libpic32.a(strlen.o)

.bss%z137       0x00000000        0x0
 .bss           0x00000000        0x0 c:/program files/microchip/xc32/v2.50/bin/bin/../../lib/gcc/pic32mx/4.8.3/../../../../pic32mx/lib\libpic32.a(strcpy.o)

.data%z138      0x00000000        0x0
 .data          0x00000000        0x0 c:/program files/microchip/xc32/v2.50/bin/bin/../../lib/gcc/pic32mx/4.8.3/../../../../pic32mx/lib\libpic32.a(strcpy.o)

.bss%z139       0x00000000        0x0
 .bss           0x00000000        0x0 c:/program files/microchip/xc32/v2.50/bin/bin/../../lib/gcc/pic32mx/4.8.3/../../../../pic32mx/lib\libpic32.a(strcmp.o)

.data%z140      0x00000000        0x0
 .data          0x00000000        0x0 c:/program files/microchip/xc32/v2.50/bin/bin/../../lib/gcc/pic32mx/4.8.3/../../../../pic32mx/lib\libpic32.a(strcmp.o)

.bss%z141       0x00000000        0x0
 .bss           0x00000000        0x0 c:/program files/microchip/xc32/v2.50/bin/bin/../../lib/gcc/pic32mx/4.8.3/../../../../pic32mx/lib\libpic32.a(memset.o)

.data%z142      0x00000000        0x0
 .data          0x00000000        0x0 c:/program files/microchip/xc32/v2.50/bin/bin/../../lib/gcc/pic32mx/4.8.3/../../../../pic32mx/lib\libpic32.a(memset.o)

.bss%z143       0x00000000        0x0
 .bss           0x00000000        0x0 c:/program files/microchip/xc32/v2.50/bin/bin/../../lib/gcc/pic32mx/4.8.3/../../../../pic32mx/lib\libpic32.a(memcpy.o)

.data%z144      0x00000000        0x0
 .data          0x00000000        0x0 c:/program files/microchip/xc32/v2.50/bin/bin/../../lib/gcc/pic32mx/4.8.3/../../../../pic32mx/lib\libpic32.a(memcpy.o)

.bss%z145       0x00000000        0x0
 .bss           0x00000000        0x0 c:/program files/microchip/xc32/v2.50/bin/bin/../../lib/gcc/pic32mx/4.8.3/../../../../pic32mx/lib\libpic32.a(memcmp.o)

.data%z146      0x00000000        0x0
 .data          0x00000000        0x0 c:/program files/microchip/xc32/v2.50/bin/bin/../../lib/gcc/pic32mx/4.8.3/../../../../pic32mx/lib\libpic32.a(memcmp.o)

.bss%z147       0x00000000        0x0
 .bss           0x00000000        0x0 c:/program files/microchip/xc32/v2.50/bin/bin/../../lib/gcc/pic32mx/4.8.3\libgcc.a(_udivdi3.o)

.data%z148      0x00000000        0x0
 .data          0x00000000        0x0 c:/program files/microchip/xc32/v2.50/bin/bin/../../lib/gcc/pic32mx/4.8.3\libgcc.a(_udivdi3.o)

.bss%z149       0x00000000        0x0
 .bss           0x00000000        0x0 c:/program files/microchip/xc32/v2.50/bin/bin/../../lib/gcc/pic32mx/4.8.3/../../../../pic32mx/lib/./proc/32MX270F256B\processor.o

.data%z150      0x00000000        0x0
 .data          0x00000000        0x0 c:/program files/microchip/xc32/v2.50/bin/bin/../../lib/gcc/pic32mx/4.8.3/../../../../pic32mx/lib/./proc/32MX270F256B\processor.o

.bss%z151       0x00000000        0x0
 .bss           0x00000000        0x0 c:/program files/microchip/xc32/v2.50/bin/bin/../../lib/gcc/pic32mx/4.8.3/../../../../pic32mx/lib\pic32_software_reset.o

.data%z152      0x00000000        0x0
 .data          0x00000000        0x0 c:/program files/microchip/xc32/v2.50/bin/bin/../../lib/gcc/pic32mx/4.8.3/../../../../pic32mx/lib\pic32_software_reset.o

.bss%z153       0x00000000        0x0
 .bss           0x00000000        0x0 C:\Users\Thorb\AppData\Local\Temp\ccH318PN.o

.data%z154      0x00000000        0x0
 .data          0x00000000        0x0 C:\Users\Thorb\AppData\Local\Temp\ccH318PN.o

.bss%z155       0x00000000        0x0
 .bss           0x00000000        0x0 C:\Users\Thorb\AppData\Local\Temp\ccDG7xxo.o

.data%z156      0x00000000        0x0
 .data          0x00000000        0x0 C:\Users\Thorb\AppData\Local\Temp\ccDG7xxo.o

.bss%z157       0x00000000        0x0
 .bss           0x00000000        0x0 C:\Users\Thorb\AppData\Local\Temp\ccdgVN5b.o

.data%z158      0x00000000        0x0
 .data          0x00000000        0x0 C:\Users\Thorb\AppData\Local\Temp\ccdgVN5b.o

.bss%z159       0x00000000        0x0
 .bss           0x00000000        0x0 build/default/debug/min.o

.data%z160      0x00000000        0x0
 .data          0x00000000        0x0 build/default/debug/min.o

.bss%z161       0x00000000        0x0
 .bss           0x00000000        0x0 build/default/debug/FiberComms.o

.data%z162      0x00000000        0x0
 .data          0x00000000        0x0 build/default/debug/FiberComms.o

.bss%z163       0x00000000        0x0
 .bss           0x00000000        0x0 build/default/debug/LED.o

.data%z164      0x00000000        0x0
 .data          0x00000000        0x0 build/default/debug/LED.o

.bss%z165       0x00000000        0x0
 .bss           0x00000000        0x0 build/default/debug/main_blinky.o

.data%z166      0x00000000        0x0
 .data          0x00000000        0x0 build/default/debug/main_blinky.o

.bss%z167       0x00000000        0x0
 .bss           0x00000000        0x0 build/default/debug/main.o

.data%z168      0x00000000        0x0
 .data          0x00000000        0x0 build/default/debug/main.o

.bss%z169       0x00000000        0x0
 .bss           0x00000000        0x0 build/default/debug/UART.o

.data%z170      0x00000000        0x0
 .data          0x00000000        0x0 build/default/debug/UART.o

.bss%z171       0x00000000        0x0
 .bss           0x00000000        0x0 build/default/debug/SPI.o

.data%z172      0x00000000        0x0
 .data          0x00000000        0x0 build/default/debug/SPI.o

.bss%z173       0x00000000        0x0
 .bss           0x00000000        0x0 build/default/debug/NetworkInterface_LAN9250.o

.data%z174      0x00000000        0x0
 .data          0x00000000        0x0 build/default/debug/NetworkInterface_LAN9250.o

.bss%z175       0x00000000        0x0
 .bss           0x00000000        0x0 build/default/debug/LAN9250.o

.data%z176      0x00000000        0x0
 .data          0x00000000        0x0 build/default/debug/LAN9250.o

.bss%z177       0x00000000        0x0
 .bss           0x00000000        0x0 build/default/debug/ConfigPerformance.o

.data%z178      0x00000000        0x0
 .data          0x00000000        0x0 build/default/debug/ConfigPerformance.o

.data%z179      0x00000000        0x0
 .data          0x00000000        0x0 build/default/debug/FreeRTOS/TCPIP/portable/BufferManagement/BufferAllocation_2.o

.bss%z180       0x00000000        0x0
 .bss           0x00000000        0x0 build/default/debug/FreeRTOS/TCPIP/FreeRTOS_UDP_IP.o

.data%z181      0x00000000        0x0
 .data          0x00000000        0x0 build/default/debug/FreeRTOS/TCPIP/FreeRTOS_TCP_WIN.o

.data%z182      0x00000000        0x0
 .data          0x00000000        0x0 build/default/debug/FreeRTOS/TCPIP/FreeRTOS_TCP_IP.o

.bss%z183       0x00000000        0x0
 .bss           0x00000000        0x0 build/default/debug/FreeRTOS/TCPIP/FreeRTOS_Stream_Buffer.o

.data%z184      0x00000000        0x0
 .data          0x00000000        0x0 build/default/debug/FreeRTOS/TCPIP/FreeRTOS_Stream_Buffer.o

.data%z185      0x00000000        0x0
 .data          0x00000000        0x0 build/default/debug/FreeRTOS/TCPIP/FreeRTOS_Sockets.o

.data%z186      0x00000000        0x0
 .data          0x00000000        0x0 build/default/debug/FreeRTOS/TCPIP/FreeRTOS_IP.o

.data%z187      0x00000000        0x0
 .data          0x00000000        0x0 build/default/debug/FreeRTOS/TCPIP/FreeRTOS_DNS.o

.data%z188      0x00000000        0x0
 .data          0x00000000        0x0 build/default/debug/FreeRTOS/TCPIP/FreeRTOS_DHCP.o

.data%z189      0x00000000        0x0
 .data          0x00000000        0x0 build/default/debug/FreeRTOS/TCPIP/FreeRTOS_ARP.o

.bss%z190       0x00000000        0x0
 .bss           0x00000000        0x0 build/default/debug/FreeRTOS/Core/portable/MPLAB/PIC32MX/port_asm.o

.data%z191      0x00000000        0x0
 .data          0x00000000        0x0 build/default/debug/FreeRTOS/Core/portable/MPLAB/PIC32MX/port_asm.o

.data%z192      0x00000000        0x0
 .data          0x00000000        0x0 build/default/debug/FreeRTOS/Core/portable/MPLAB/PIC32MX/port.o

.data%z193      0x00000000        0x0
 .data          0x00000000        0x0 build/default/debug/FreeRTOS/Core/portable/MemMang/heap_4.o

.data%z194      0x00000000        0x0
 .data          0x00000000        0x0 build/default/debug/FreeRTOS/Core/timers.o

.bss%z195       0x00000000        0x0
 .bss           0x00000000        0x0 build/default/debug/FreeRTOS/Core/tasks.o

.data%z196      0x00000000        0x0
 .data          0x00000000        0x0 build/default/debug/FreeRTOS/Core/tasks.o

.bss%z197       0x00000000        0x0
 .bss           0x00000000        0x0 build/default/debug/FreeRTOS/Core/stream_buffer.o

.data%z198      0x00000000        0x0
 .data          0x00000000        0x0 build/default/debug/FreeRTOS/Core/stream_buffer.o

.bss%z199       0x00000000        0x0
 .bss           0x00000000        0x0 build/default/debug/FreeRTOS/Core/queue.o

.data%z200      0x00000000        0x0
 .data          0x00000000        0x0 build/default/debug/FreeRTOS/Core/queue.o

.bss%z201       0x00000000        0x0
 .bss           0x00000000        0x0 build/default/debug/FreeRTOS/Core/list.o

.data%z202      0x00000000        0x0
 .data          0x00000000        0x0 build/default/debug/FreeRTOS/Core/list.o

.bss%z203       0x00000000        0x0
 .bss           0x00000000        0x0 build/default/debug/FreeRTOS/Core/event_groups.o

.data%z204      0x00000000        0x0
 .data          0x00000000        0x0 build/default/debug/FreeRTOS/Core/event_groups.o

.bss%z205       0x00000000        0x0
 .bss           0x00000000        0x0 c:/program files/microchip/xc32/v2.50/bin/bin/../../lib/gcc/pic32mx/4.8.3/../../../../pic32mx/lib\software-debug-break.o

.data%z206      0x00000000        0x0
 .data          0x00000000        0x0 c:/program files/microchip/xc32/v2.50/bin/bin/../../lib/gcc/pic32mx/4.8.3/../../../../pic32mx/lib\software-debug-break.o

.text           0x9d000000     0xb108
 .text          0x9d000000     0x5f5c build/default/debug/FreeRTOS/TCPIP/FreeRTOS_TCP_IP.o
                0x9d0006d4                xTCPSocketCheck
                0x9d002460                vTCPStateChange
                0x9d005034                xProcessReceivedTCPPacket
                0x9d005db4                FreeRTOS_GetTCPStateName
                0x9d005e28                xTCPCheckNewClient
 .text          0x9d005f5c     0x51ac build/default/debug/FreeRTOS/TCPIP/FreeRTOS_Sockets.o
                0x9d0064e0                vNetworkSocketsInit
                0x9d006688                FreeRTOS_socket
                0x9d0068cc                FreeRTOS_CreateSocketSet
                0x9d006968                FreeRTOS_DeleteSocketSet
                0x9d0069bc                FreeRTOS_FD_SET
                0x9d006a68                FreeRTOS_FD_CLR
                0x9d006b0c                FreeRTOS_FD_ISSET
                0x9d006b90                FreeRTOS_select
                0x9d006d3c                FreeRTOS_recvfrom
                0x9d006fe0                FreeRTOS_sendto
                0x9d007234                FreeRTOS_bind
                0x9d0073d4                vSocketBind
                0x9d007618                FreeRTOS_closesocket
                0x9d0076c4                vSocketClose
                0x9d007b9c                FreeRTOS_setsockopt
                0x9d008390                pxUDPSocketLookup
                0x9d008410                FreeRTOS_inet_ntoa
                0x9d00863c                FreeRTOS_inet_pton
                0x9d0086ac                FreeRTOS_inet_ntop
                0x9d008720                FreeRTOS_inet_ntop4
                0x9d0087ac                FreeRTOS_inet_pton4
                0x9d0089c4                FreeRTOS_inet_addr
                0x9d008a0c                FreeRTOS_GetLocalAddress
                0x9d008a8c                vSocketWakeUpUser
                0x9d008e68                FreeRTOS_connect
                0x9d008fbc                FreeRTOS_accept
                0x9d0092a4                FreeRTOS_recv
                0x9d009744                FreeRTOS_get_tx_head
                0x9d009830                FreeRTOS_send
                0x9d009b64                FreeRTOS_listen
                0x9d009cf4                FreeRTOS_shutdown
                0x9d009db0                xTCPTimerCheck
                0x9d009f74                pxTCPSocketLookup
                0x9d00a098                FreeRTOS_get_rx_buf
                0x9d00a2fc                lTCPAddRxdata
                0x9d00a4e4                FreeRTOS_GetRemoteAddress
                0x9d00a5cc                FreeRTOS_maywrite
                0x9d00a6bc                FreeRTOS_tx_space
                0x9d00a754                FreeRTOS_tx_size
                0x9d00a7e4                FreeRTOS_issocketconnected
                0x9d00a86c                FreeRTOS_mss
                0x9d00a8cc                FreeRTOS_connstatus
                0x9d00a92c                FreeRTOS_rx_size
                0x9d00a9bc                FreeRTOS_netstat
                0x9d00aa04                vTCPNetStat
                0x9d00ad28                vSocketSelect

.text           0x9d00b108     0x6aec
 .text          0x9d00b108     0x37f4 build/default/debug/FreeRTOS/Core/tasks.o
                0x9d00b108                xTaskCreate
                0x9d00b21c                prvInitialiseNewTask
                0x9d00b44c                prvAddNewTaskToReadyList
                0x9d00b5a0                vTaskDelete
                0x9d00b740                vTaskDelayUntil
                0x9d00b8bc                vTaskDelay
                0x9d00b958                eTaskGetState
                0x9d00bae8                uxTaskPriorityGet
                0x9d00bb54                uxTaskPriorityGetFromISR
                0x9d00bbc8                vTaskPrioritySet
                0x9d00be1c                vTaskSuspend
                0x9d00c014                prvTaskIsTaskSuspended
                0x9d00c0a0                vTaskResume
                0x9d00c1c8                xTaskResumeFromISR
                0x9d00c2fc                vTaskStartScheduler
                0x9d00c3f4                vTaskEndScheduler
                0x9d00c464                vTaskSuspendAll
                0x9d00c490                xTaskResumeAll
                0x9d00c664                xTaskGetTickCount
                0x9d00c690                xTaskGetTickCountFromISR
                0x9d00c6c0                uxTaskGetNumberOfTasks
                0x9d00c6e4                pcTaskGetName
                0x9d00c740                xTaskCatchUpTicks
                0x9d00c7a4                xTaskIncrementTick
                0x9d00c9cc                vTaskSwitchContext
                0x9d00cb54                vTaskPlaceOnEventList
                0x9d00cbbc                vTaskPlaceOnUnorderedEventList
                0x9d00cc4c                vTaskPlaceOnEventListRestricted
                0x9d00cccc                xTaskRemoveFromEventList
                0x9d00ce00                vTaskRemoveFromUnorderedEventList
                0x9d00cf08                vTaskSetTimeOutState
                0x9d00cf6c                vTaskInternalSetTimeOutState
                0x9d00cfa8                xTaskCheckForTimeOut
                0x9d00d0e4                vTaskMissedYield
                0x9d00d10c                prvIdleTask
                0x9d00d164                prvInitialiseTaskLists
                0x9d00d244                prvCheckTasksWaitingTermination
                0x9d00d2dc                prvTaskCheckFreeStackSpace
                0x9d00d34c                uxTaskGetStackHighWaterMark
                0x9d00d3b8                prvDeleteTCB
                0x9d00d404                prvResetNextTaskUnblockTime
                0x9d00d454                xTaskGetCurrentTaskHandle
                0x9d00d480                xTaskGetSchedulerState
                0x9d00d4e0                xTaskPriorityInherit
                0x9d00d688                xTaskPriorityDisinherit
                0x9d00d7f4                vTaskPriorityDisinheritAfterTimeout
                0x9d00d9bc                vTaskEnterCritical
                0x9d00da60                vTaskExitCritical
                0x9d00dae4                uxTaskResetEventItemValue
                0x9d00db2c                pvTaskIncrementMutexHeldCount
                0x9d00db6c                ulTaskGenericNotifyTake
                0x9d00dcc8                xTaskGenericNotifyWait
                0x9d00de84                xTaskGenericNotify
                0x9d00e164                xTaskGenericNotifyFromISR
                0x9d00e47c                vTaskGenericNotifyGiveFromISR
                0x9d00e644                xTaskGenericNotifyStateClear
                0x9d00e6fc                ulTaskGenericNotifyValueClear
                0x9d00e7bc                prvAddCurrentTaskToDelayedList
 .text          0x9d00e8fc     0x32f8 build/default/debug/FreeRTOS/TCPIP/FreeRTOS_IP.o
                0x9d00ede4                xIsCallingFromIPTask
                0x9d00f218                FreeRTOS_NetworkDown
                0x9d00f27c                FreeRTOS_NetworkDownFromISR
                0x9d00f2f4                FreeRTOS_GetUDPPayloadBuffer
                0x9d00f39c                pxDuplicateNetworkBufferWithDescriptor
                0x9d00f454                pxUDPPayloadBuffer_to_NetworkBuffer
                0x9d00f4d0                FreeRTOS_ReleaseUDPPayloadBuffer
                0x9d00f514                FreeRTOS_IPInit
                0x9d00f83c                FreeRTOS_GetAddressConfiguration
                0x9d00f8ec                FreeRTOS_SetAddressConfiguration
                0x9d00f99c                xSendEventToIPTask
                0x9d00f9ec                xSendEventStructToIPTask
                0x9d00fb2c                eConsiderFrameForProcessing
                0x9d00fd20                vIPNetworkUpCalls
                0x9d00ff10                xIsIPv4Multicast
                0x9d00ffb0                vSetMultiCastIPv4MacAddress
                0x9d01087c                usGenerateProtocolChecksum
                0x9d011010                usGenerateChecksum
                0x9d011384                vReturnEthernetFrame
                0x9d01141c                vPrintResourceStats
                0x9d011534                FreeRTOS_GetIPAddress
                0x9d011560                FreeRTOS_SetIPAddress
                0x9d011594                FreeRTOS_GetGatewayAddress
                0x9d0115c0                FreeRTOS_GetDNSServerAddress
                0x9d0115ec                FreeRTOS_GetNetmask
                0x9d011618                FreeRTOS_UpdateMACAddress
                0x9d01165c                FreeRTOS_GetMACAddress
                0x9d011684                FreeRTOS_SetNetmask
                0x9d0116b8                FreeRTOS_SetGatewayAddress
                0x9d0116ec                vIPSetDHCPTimerEnableState
                0x9d011748                vIPReloadDHCPTimer
                0x9d011788                xIPIsNetworkTaskReady
                0x9d0117ac                FreeRTOS_IsNetworkUp
                0x9d0117d0                FreeRTOS_strerror_r

.text           0x9d011bf4     0x52c8
 .text          0x9d011bf4     0x2af0 build/default/debug/LAN9250.o
                0x9d011bf4                ETH_init
                0x9d012260                ETH_rxDmaFinishedCallback
                0x9d01241c                ETH_readFrame
                0x9d0127f8                ETH_txDmaFinishedCallback
                0x9d012a38                ETH_waitForTXSpace
                0x9d012acc                ETH_writePacket
                0x9d012cb4                ETH_reset
                0x9d012cec                ETH_rxDataAvailable
                0x9d012da8                ETH_txSpaceAvailable
                0x9d012de8                ETH_CheckLinkUp
                0x9d012e48                ETH_getTXStatusCount
                0x9d012e84                ETH_readReg
                0x9d012f98                ETH_writeReg
                0x9d013080                ETH_CSRBusy
                0x9d0130b8                ETH_writeMac
                0x9d013158                ETH_readMac
                0x9d013234                ETH_MIIBusy
                0x9d01326c                ETH_writePhy
                0x9d013320                ETH_readPhy
                0x9d013410                ETH_setupDMA
                0x9d013530                PHY_enableInterrupts
                0x9d0135e0                PHY_setSpecialControlStatus
                0x9d013678                PHY_setSpecialMode
                0x9d0136f8                PHY_setAutoNegAbilities
                0x9d0137bc                PHY_setBasicControl
                0x9d013860                ETH_setMacControl
                0x9d013980                ETH_setMacChcksmControl
                0x9d0139e4                ETH_setPowermanagement
                0x9d013b60                ETH_setTxConf
                0x9d013bb8                ETH_forceTXDiscard
                0x9d013c0c                ETH_setRxConf
                0x9d013c7c                ETH_forceRXDiscard
                0x9d013cd0                ETH_setFifoInt
                0x9d013d3c                ETH_enableInt
                0x9d013d98                ETH_disableInt
                0x9d013df8                ETH_clearIF
                0x9d013e34                ETH_setInterruptConfiguration
                0x9d013e8c                ETH_setAutoFlowcontrol
                0x9d013f24                ETH_setHWConf
                0x9d013f78                ETH_writeMacAddress
                0x9d01408c                ETH_dumpRX
                0x9d014144                ETH_dumpTX
                0x9d0141f4                ETH_dumpPackt
                0x9d014310                ETH_dumpConfig
 .text          0x9d0146e4     0x27d8 build/default/debug/FreeRTOS/TCPIP/FreeRTOS_DNS.o
                0x9d0147a4                FreeRTOS_dnsclear
                0x9d0148d4                FreeRTOS_dnslookup
                0x9d014924                FreeRTOS_gethostbyname
                0x9d015420                ulDNSHandlePacket
                0x9d0154b0                ulNBNSHandlePacket

.text           0x9d016ebc     0x46e0
 .text          0x9d016ebc     0x2688 build/default/debug/FreeRTOS/TCPIP/FreeRTOS_TCP_WIN.o
                0x9d0175a8                xTCPWindowRxEmpty
                0x9d017804                vTCPWindowDestroy
                0x9d0178d8                vTCPWindowCreate
                0x9d0179dc                vTCPWindowInit
                0x9d017b34                vTCPSegmentCleanup
                0x9d017d68                lTCPWindowRxCheck
                0x9d0182d4                lTCPWindowTxAdd
                0x9d0186bc                xTCPWindowTxDone
                0x9d018828                xTCPWindowTxHasData
                0x9d0189b0                ulTCPWindowTxGet
                0x9d0193cc                ulTCPWindowTxAck
                0x9d019448                ulTCPWindowTxSack
 .text          0x9d019544     0x2058 build/default/debug/FreeRTOS/Core/queue.o
                0x9d019544                xQueueGenericReset
                0x9d0196b4                xQueueGenericCreate
                0x9d0198b4                xQueueCreateMutex
                0x9d01991c                xQueueGiveMutexRecursive
                0x9d0199d4                xQueueTakeMutexRecursive
                0x9d019a98                xQueueCreateCountingSemaphore
                0x9d019b24                xQueueGenericSend
                0x9d019e84                xQueueGenericSendFromISR
                0x9d01a05c                xQueueGiveFromISR
                0x9d01a1ec                xQueueReceive
                0x9d01a4dc                xQueueSemaphoreTake
                0x9d01a848                xQueuePeek
                0x9d01ab40                xQueueReceiveFromISR
                0x9d01acc0                xQueuePeekFromISR
                0x9d01adbc                uxQueueMessagesWaiting
                0x9d01ae18                uxQueueSpacesAvailable
                0x9d01ae88                uxQueueMessagesWaitingFromISR
                0x9d01aed4                vQueueDelete
                0x9d01b39c                xQueueIsQueueEmptyFromISR
                0x9d01b46c                xQueueIsQueueFullFromISR
                0x9d01b4d8                vQueueWaitForMessageRestricted

.text           0x9d01b59c     0x27e4
 .text          0x9d01b59c     0x1490 build/default/debug/FreeRTOS/Core/stream_buffer.o
                0x9d01b59c                xStreamBufferGenericCreate
                0x9d01b6a0                vStreamBufferDelete
                0x9d01b720                xStreamBufferReset
                0x9d01b7dc                xStreamBufferSetTriggerLevel
                0x9d01b86c                xStreamBufferSpacesAvailable
                0x9d01b910                xStreamBufferBytesAvailable
                0x9d01b968                xStreamBufferSend
                0x9d01bc30                xStreamBufferSendFromISR
                0x9d01be80                xStreamBufferReceive
                0x9d01c07c                xStreamBufferNextMessageLengthBytes
                0x9d01c15c                xStreamBufferReceiveFromISR
                0x9d01c374                xStreamBufferIsEmpty
                0x9d01c3e8                xStreamBufferIsFull
                0x9d01c48c                xStreamBufferSendCompletedFromISR
                0x9d01c548                xStreamBufferReceiveCompletedFromISR
 .text          0x9d01ca2c     0x1354 build/default/debug/UART.o
                0x9d01ca2c                UART_init
                0x9d01cd18                UART_sendTask
                0x9d01ce08                UART_rxDmaOverflowHook
                0x9d01cfc4                UART_bufferOverflowHandler
                0x9d01cfdc                UART_receiveTask
                0x9d01d124                UART_sendString
                0x9d01d1ac                UART_print
                0x9d01d22c                UART_queBuffer
                0x9d01d2f0                UART_txDmaFinishedCallback
                0x9d01d4ac                UART_sendBytes
                0x9d01d580                UART_sendChar
                0x9d01d5cc                UART_clearOERR
                0x9d01d5fc                UART_dataAvailable
                0x9d01d62c                UART_getChar
                0x9d01d658                UART_disableRX
                0x9d01d688                UART_enableRX
                0x9d01d6bc                UART_setBaud
                0x9d01d7e8                UART_isOERR
                0x9d01d818                UART_getVT100Code
                0x9d01dcb4                UART_getBaud
                0x9d01dd24                UART_setCursorPosVT100

.text           0x9d01dd80     0x2454
 .text          0x9d01dd80     0x1334 build/default/debug/FreeRTOS/TCPIP/FreeRTOS_DHCP.o
                0x9d01ddd0                xIsDHCPSocket
                0x9d01de1c                vDHCPProcess
 .text          0x9d01f0b4     0x1120 build/default/debug/FreeRTOS/TCPIP/FreeRTOS_ARP.o
                0x9d01f104                eARPProcessPacket
                0x9d01f33c                vARPRefreshCacheEntry
                0x9d01f714                eARPGetCacheEntry
                0x9d01fa48                vARPAgeCache
                0x9d01fc54                vARPSendGratuitous
                0x9d01fc8c                FreeRTOS_OutputARPRequest
                0x9d01fd50                vARPGenerateRequestPacket
                0x9d01fe60                FreeRTOS_ClearARP
                0x9d01fea0                xCheckLoopback
                0x9d01ffcc                FreeRTOS_PrintARPCache

.text           0x9d0201d4      0xf40
 .text          0x9d0201d4      0xf40 build/default/debug/FreeRTOS/Core/timers.o
                0x9d0201d4                xTimerCreateTimerTask
                0x9d02025c                xTimerCreate
                0x9d0203a8                xTimerGenericCommand
                0x9d0204c0                xTimerGetTimerDaemonTaskHandle
                0x9d0204f4                xTimerGetPeriod
                0x9d020538                vTimerSetReloadMode
                0x9d0205d4                uxTimerGetReloadMode
                0x9d020654                xTimerGetExpiryTime
                0x9d0206a0                pcTimerGetName
                0x9d020fcc                xTimerIsTimerActive
                0x9d02104c                pvTimerGetTimerID
                0x9d0210b0                vTimerSetTimerID

.text._fconvert
                0x9d021114      0xf08
 .text._fconvert
                0x9d021114      0xf08 c:/program files/microchip/xc32/v2.50/bin/bin/../../lib/gcc/pic32mx/4.8.3/../../../../pic32mx/lib\liblega-c.a(_doprnt.o)

.text           0x9d02201c      0xc64
 .text          0x9d02201c      0xc64 build/default/debug/min.o
                0x9d022adc                min_poll
                0x9d022b70                min_init_context
                0x9d022bd8                min_send_frame

.text.do_print  0x9d022c80      0xb00
 .text.do_print
                0x9d022c80      0xb00 c:/program files/microchip/xc32/v2.50/bin/bin/../../lib/gcc/pic32mx/4.8.3/../../../../pic32mx/lib\liblega-c.a(_doprnt.o)
                0x9d022c80                do_print

.text._do_print_cdnopsuxX
                0x9d023780      0xa70
 .text._do_print_cdnopsuxX
                0x9d023780      0xa70 c:/program files/microchip/xc32/v2.50/bin/bin/../../lib/gcc/pic32mx/4.8.3/../../../../pic32mx/lib\liblega-c.a(_doprnt_cdnopsuxX.eo)
                0x9d023780                _do_print_cdnopuxX
                0x9d023780                _do_print_cdnopsuxX

.text           0x9d0241f0     0x11bc
 .text          0x9d0241f0      0x9a4 build/default/debug/FreeRTOS/Core/event_groups.o
                0x9d0241f0                xEventGroupCreate
                0x9d024254                xEventGroupSync
                0x9d024490                xEventGroupWaitBits
                0x9d02471c                xEventGroupClearBits
                0x9d0247b4                xEventGroupGetBitsFromISR
                0x9d024810                xEventGroupSetBits
                0x9d0249e8                vEventGroupDelete
                0x9d024a90                vEventGroupSetBitsCallback
                0x9d024ad0                vEventGroupClearBitsCallback
 .text          0x9d024b94      0x818 build/default/debug/FreeRTOS/TCPIP/FreeRTOS_UDP_IP.o
                0x9d024be4                vProcessGeneratedUDPPacket
                0x9d025124                xProcessReceivedUDPPacket

.rodata         0x9d0253ac      0x7a0
 .rodata        0x9d0253ac      0x7a0 build/default/debug/FreeRTOS/TCPIP/FreeRTOS_TCP_IP.o

.text           0x9d025b4c      0xe40
 .text          0x9d025b4c      0x778 build/default/debug/FreeRTOS/Core/portable/MemMang/heap_4.o
                0x9d025b4c                pvPortMalloc
                0x9d025dac                vPortFree
                0x9d025eb8                xPortGetFreeHeapSize
                0x9d025edc                xPortGetMinimumEverFreeHeapSize
                0x9d025f00                vPortInitialiseBlocks
                0x9d026190                vPortGetHeapStats
 .text          0x9d0262c4      0x6c8 build/default/debug/FreeRTOS/TCPIP/FreeRTOS_Stream_Buffer.o
                0x9d026588                uxStreamBufferAdd
                0x9d0267a0                uxStreamBufferGet

.text           0x9d02698c      0x640
 .text          0x9d02698c      0x640 build/default/debug/FreeRTOS/TCPIP/portable/BufferManagement/BufferAllocation_2.o
                0x9d02698c                xNetworkBuffersInitialise
                0x9d026b08                pucGetNetworkBuffer
                0x9d026bc8                vReleaseNetworkBuffer
                0x9d026c18                pxGetNetworkBufferWithDescriptor
                0x9d026dc4                vReleaseNetworkBufferAndDescriptor
                0x9d026e94                uxGetNumberOfFreeNetworkBuffers
                0x9d026ebc                uxGetMinimumFreeNetworkBuffers
                0x9d026ee0                pxResizeNetworkBufferWithDescriptor

.rodata         0x9d026fcc      0x53c
 .rodata        0x9d026fcc      0x53c build/default/debug/FreeRTOS/TCPIP/FreeRTOS_TCP_WIN.o

.text           0x9d027508      0x4d4
 .text          0x9d027508      0x4d4 build/default/debug/FiberComms.o
                0x9d027508                COMMS_init
                0x9d0275b4                COMMS_udpDataHandler
                0x9d0276f8                COMMS_udpDiscoverHandler
                0x9d02771c                COMMS_sendDataToLastClient
                0x9d027780                min_checkUDPFrame
                0x9d027824                min_application_handler
                0x9d0278f0                min_time_ms
                0x9d027920                min_tx_space
                0x9d02795c                min_tx_byte
                0x9d02798c                min_tx_start
                0x9d0279b4                min_tx_finished

.rodata         0x9d0279dc      0x4bc
 .rodata        0x9d0279dc      0x4bc build/default/debug/LAN9250.o
                0x9d0279dc                MAC_ADDRESS
                0x9d0279e4                IP_ADDRESS
                0x9d0279e8                NETMASK
                0x9d0279ec                DNSIP
                0x9d0279f0                GATEWAYIP

.text.dp32mul   0x9d027e98      0x4b8
 .text.dp32mul  0x9d027e98      0x4b8 c:/program files/microchip/xc32/v2.50/bin/bin/../../lib/gcc/pic32mx/4.8.3/../../../../pic32mx/lib\libm.a(dp32div.o)
                0x9d027e98                __divdf3
                0x9d027e98                dpdiv

.text           0x9d028350      0x8bc
 .text          0x9d028350      0x464 c:/program files/microchip/xc32/v2.50/bin/bin/../../lib/gcc/pic32mx/4.8.3\libgcc.a(_umoddi3.o)
                0x9d028350                __umoddi3
 .text          0x9d0287b4      0x458 c:/program files/microchip/xc32/v2.50/bin/bin/../../lib/gcc/pic32mx/4.8.3\libgcc.a(_udivdi3.o)
                0x9d0287b4                __udivdi3

.text           0x9d028c0c      0x454
 .text          0x9d028c0c      0x454 build/default/debug/FreeRTOS/Core/portable/MPLAB/PIC32MX/port_asm.o
                0x9d028c0c                vPortTickInterruptHandler
                0x9d028db8                vPortStartFirstTask
                0x9d028e80                vPortYieldISR

.text.dp32subadd
                0x9d029060      0x430
 .text.dp32subadd
                0x9d029060      0x430 c:/program files/microchip/xc32/v2.50/bin/bin/../../lib/gcc/pic32mx/4.8.3/../../../../pic32mx/lib\libm.a(dp32subadd.o)
                0x9d029060                __subdf3
                0x9d029060                dpsub
                0x9d029068                dpadd
                0x9d029068                __adddf3

.rodata         0x9d029490      0x414
 .rodata        0x9d029490      0x414 build/default/debug/FreeRTOS/TCPIP/FreeRTOS_Sockets.o

.text           0x9d0298a4      0x7e0
 .text          0x9d0298a4      0x3fc build/default/debug/FreeRTOS/Core/portable/MPLAB/PIC32MX/port.o
                0x9d0298a4                pxPortInitialiseStack
                0x9d029a00                vApplicationSetupTickTimerInterrupt
                0x9d029a9c                vPortEndScheduler
                0x9d029ad0                xPortStartScheduler
                0x9d029b74                vPortIncrementTick
                0x9d029c10                uxPortSetInterruptMaskFromISR
                0x9d029c68                vPortClearInterruptMaskFromISR
 .text          0x9d029ca0      0x3e4 build/default/debug/main_blinky.o
                0x9d029ca0                main_blinky

.text           0x9d02a084      0x728
 .text          0x9d02a084      0x3c4 build/default/debug/SPI.o
                0x9d02a084                SPI_init
                0x9d02a210                SPI_send
                0x9d02a274                SPI_sendBytes
                0x9d02a31c                SPI_readBytes
                0x9d02a3a0                SPI_setCLKFreq
                0x9d02a3f0                SPI_setCLKDiv
                0x9d02a420                SPI_getCLKDiv
 .text          0x9d02a448      0x364 build/default/debug/NetworkInterface_LAN9250.o
                0x9d02a448                xNetworkInterfaceInitialise
                0x9d02a478                xNetworkInterfaceOutput
                0x9d02a4e4                vNetworkInterfaceAllocateRAMToBuffers
                0x9d02a508                xGetPhyLinkStatus
                0x9d02a550                vLoggingPrintf
                0x9d02a594                vApplicationIPNetworkEventHook
                0x9d02a6f8                xApplicationGetRandomNumber
                0x9d02a73c                xApplicationDNSQueryHook
                0x9d02a764                ulApplicationGetNextSequenceNumber

.dinit          0x9d02a7ac      0x330
 .dinit         0x9d02a7ac      0x330 data_init

.text.dp32mul   0x9d02aadc      0x32c
 .text.dp32mul  0x9d02aadc      0x32c c:/program files/microchip/xc32/v2.50/bin/bin/../../lib/gcc/pic32mx/4.8.3/../../../../pic32mx/lib\libm.a(dp32mul.o)
                0x9d02aadc                __muldf3
                0x9d02aadc                dpmul

.text           0x9d02ae08      0x314
 .text          0x9d02ae08      0x314 build/default/debug/main.o
                0x9d02ae08                main
                0x9d02afa4                vApplicationMallocFailedHook
                0x9d02aff8                vApplicationIdleHook
                0x9d02b018                vApplicationStackOverflowHook
                0x9d02b098                vApplicationTickHook
                0x9d02b0b8                _general_exception_handler
                0x9d02b0d4                vAssertCalled

.rodata         0x9d02b11c      0x2f8
 .rodata        0x9d02b11c      0x2f8 build/default/debug/FreeRTOS/TCPIP/FreeRTOS_IP.o
                0x9d02b11c                xBroadcastMACAddress

.text           0x9d02b414      0x514
 .text          0x9d02b414      0x2ac build/default/debug/FreeRTOS/Core/list.o
                0x9d02b414                vListInitialise
                0x9d02b47c                vListInitialiseItem
                0x9d02b4a8                vListInsertEnd
                0x9d02b534                vListInsert
                0x9d02b620                uxListRemove
 .text          0x9d02b6c0      0x268 build/default/debug/LED.o
                0x9d02b6c0                LED_init
                0x9d02b75c                LED_task
                0x9d02b820                LED_ethLinkStateChangeHook
                0x9d02b854                LED_ethDHCPStateChangeHook
                0x9d02b880                LED_ethPacketReceivedHook
                0x9d02b8b4                LED_minPacketReceivedHook
                0x9d02b8e8                LED_errorFlashHook

.text           0x9d02b928      0x378
 .text          0x9d02b928      0x1d8 build/default/debug/ConfigPerformance.o
                0x9d02b928                vHardwareConfigurePerformance
                0x9d02b990                vHardwareUseMultiVectoredInterrupts
 .text          0x9d02bb00      0x1a0 c:/program files/microchip/xc32/v2.50/bin/bin/../../lib/gcc/pic32mx/4.8.3/../../../../pic32mx/lib\libpic32.a(strcpy.o)
                0x9d02bb00                strcpy

.rodata         0x9d02bca0      0x184
 .rodata        0x9d02bca0      0x184 build/default/debug/FreeRTOS/TCPIP/FreeRTOS_DHCP.o

.text           0x9d02be24      0x2d0
 .text          0x9d02be24      0x168 c:/program files/microchip/xc32/v2.50/bin/bin/../../lib/gcc/pic32mx/4.8.3/../../../../pic32mx/lib\libpic32.a(memcpy.o)
                0x9d02be24                memcpy
 .text          0x9d02bf8c      0x168 c:/program files/microchip/xc32/v2.50/bin/bin/../../lib/gcc/pic32mx/4.8.3/../../../../pic32mx/lib\libpic32.a(strlen.o)
                0x9d02bf8c                strlen

.text.rounded.isra.0
                0x9d02c0f4      0x160
 .text.rounded.isra.0
                0x9d02c0f4      0x160 c:/program files/microchip/xc32/v2.50/bin/bin/../../lib/gcc/pic32mx/4.8.3/../../../../pic32mx/lib\liblega-c.a(_doprnt.o)

.rodata         0x9d02c254      0x140
 .rodata        0x9d02c254      0x140 build/default/debug/UART.o

.text._outcnvrt
                0x9d02c394      0x278
 .text._outcnvrt
                0x9d02c394      0x13c c:/program files/microchip/xc32/v2.50/bin/bin/../../lib/gcc/pic32mx/4.8.3/../../../../pic32mx/lib\liblega-c.a(_doprnt_cdnopsuxX.eo)
 .text._outcnvrt
                0x9d02c4d0      0x13c c:/program files/microchip/xc32/v2.50/bin/bin/../../lib/gcc/pic32mx/4.8.3/../../../../pic32mx/lib\liblega-c.a(_doprnt.o)

.text.dpcmp     0x9d02c60c      0x12c
 .text.dpcmp    0x9d02c60c      0x12c c:/program files/microchip/xc32/v2.50/bin/bin/../../lib/gcc/pic32mx/4.8.3/../../../../pic32mx/lib\libm.a(dpcmp.o)
                0x9d02c60c                __gtdf2
                0x9d02c60c                __ltdf2
                0x9d02c60c                dpcmp
                0x9d02c60c                __ledf2
                0x9d02c60c                __nedf2
                0x9d02c60c                __gedf2
                0x9d02c60c                __eqdf2

.text           0x9d02c738      0x120
 .text          0x9d02c738      0x120 c:/program files/microchip/xc32/v2.50/bin/bin/../../lib/gcc/pic32mx/4.8.3/../../../../pic32mx/lib\libpic32.a(strcmp.o)
                0x9d02c738                strcmp

.text.libm      0x9d02c858      0x120
 .text.libm     0x9d02c858      0x120 c:/program files/microchip/xc32/v2.50/bin/bin/../../lib/gcc/pic32mx/4.8.3/../../../../pic32mx/lib\libm.a(dpmodf.o)
                0x9d02c858                modf
                0x9d02c858                dpmodf
                0x9d02c858                modfl

.text._flsbuf_simple
                0x9d02c978       0xfc
 .text._flsbuf_simple
                0x9d02c978       0xfc c:/program files/microchip/xc32/v2.50/bin/bin/../../lib/gcc/pic32mx/4.8.3/../../../../pic32mx/lib\liblega-c.a(_iobfuncs.o)
                0x9d02c978                _flsbuf_simple

.rodata         0x9d02ca74       0xf4
 .rodata        0x9d02ca74       0xf4 build/default/debug/FreeRTOS/TCPIP/FreeRTOS_DNS.o
                0x9d02ca74                xLLMNR_MacAdress

.text._mon_getc
                0x9d02cb68       0xf0
 .text._mon_getc
                0x9d02cb68       0xf0 c:/program files/microchip/xc32/v2.50/bin/bin/../../lib/gcc/pic32mx/4.8.3/../../../../pic32mx/lib\libpic32.a(_mon_getc.o)
                0x9d02cb68                _mon_getc

.text.general_exception
                0x9d02cc58       0xdc
 .text.general_exception
                0x9d02cc58       0xdc c:/program files/microchip/xc32/v2.50/bin/bin/../../lib/gcc/pic32mx/4.8.3/../../../../pic32mx/lib\libpic32.a(general-exception.o)
                0x9d02cc58                _general_exception_context

.text._mon_putc
                0x9d02cd34       0xd8
 .text._mon_putc
                0x9d02cd34       0xd8 c:/program files/microchip/xc32/v2.50/bin/bin/../../lib/gcc/pic32mx/4.8.3/../../../../pic32mx/lib\libpic32.a(_mon_putc.o)
                0x9d02cd34                _mon_putc

.rodata         0x9d02ce0c      0x158
 .rodata        0x9d02ce0c       0xac build/default/debug/FreeRTOS/TCPIP/FreeRTOS_ARP.o
 .rodata        0x9d02ceb8       0xac build/default/debug/main_blinky.o

.text.repl.constprop.0
                0x9d02cf64       0xac
 .text.repl.constprop.0
                0x9d02cf64       0xac c:/program files/microchip/xc32/v2.50/bin/bin/../../lib/gcc/pic32mx/4.8.3/../../../../pic32mx/lib\liblega-c.a(_doprnt_cdnopsuxX.eo)

.text.fputc     0x9d02d010       0xac
 .text.fputc    0x9d02d010       0xac c:/program files/microchip/xc32/v2.50/bin/bin/../../lib/gcc/pic32mx/4.8.3/../../../../pic32mx/lib\liblega-c.a(fputc.o)
                0x9d02d010                fputc

.text           0x9d02d0bc       0xa8
 .text          0x9d02d0bc       0xa8 c:/program files/microchip/xc32/v2.50/bin/bin/../../lib/gcc/pic32mx/4.8.3/../../../../pic32mx/lib\libpic32.a(memset.o)
                0x9d02d0bc                memset

.text.repl      0x9d02d164       0x9c
 .text.repl     0x9d02d164       0x9c c:/program files/microchip/xc32/v2.50/bin/bin/../../lib/gcc/pic32mx/4.8.3/../../../../pic32mx/lib\liblega-c.a(_doprnt.o)

.text           0x9d02d200       0x98
 .text          0x9d02d200       0x98 c:/program files/microchip/xc32/v2.50/bin/bin/../../lib/gcc/pic32mx/4.8.3/../../../../pic32mx/lib\libpic32.a(memcmp.o)
                0x9d02d200                memcmp

.text.dptoli    0x9d02d298       0x90
 .text.dptoli   0x9d02d298       0x90 c:/program files/microchip/xc32/v2.50/bin/bin/../../lib/gcc/pic32mx/4.8.3/../../../../pic32mx/lib\libm.a(dptoli.o)
                0x9d02d298                dptoli
                0x9d02d298                __fixdfsi

.text           0x9d02d328       0x84
 .text          0x9d02d328       0x84 c:/program files/microchip/xc32/v2.50/bin/bin/../../lib/gcc/pic32mx/4.8.3/../../../../pic32mx/lib\libpic32.a(pic32_data_init.o)
                0x9d02d328                __pic32_data_init

.rodata         0x9d02d3b0       0x80
 .rodata        0x9d02d3b0       0x80 c:/program files/microchip/xc32/v2.50/bin/bin/../../lib/gcc/pic32mx/4.8.3/../../../../pic32mx/lib\liblega-c.a(_doprnt.o)

.text._fflush_simple
                0x9d02d430       0x80
 .text._fflush_simple
                0x9d02d430       0x80 c:/program files/microchip/xc32/v2.50/bin/bin/../../lib/gcc/pic32mx/4.8.3/../../../../pic32mx/lib\liblega-c.a(_iobfuncs.o)
                0x9d02d430                _fflush_simple

.text._fwrite_simple
                0x9d02d4b0       0x80
 .text._fwrite_simple
                0x9d02d4b0       0x80 c:/program files/microchip/xc32/v2.50/bin/bin/../../lib/gcc/pic32mx/4.8.3/../../../../pic32mx/lib\liblega-c.a(_iobfuncs.o)
                0x9d02d4b0                _fwrite_simple

.text._snprintf_cdnopsuxX
                0x9d02d530       0x7c
 .text._snprintf_cdnopsuxX
                0x9d02d530       0x7c c:/program files/microchip/xc32/v2.50/bin/bin/../../lib/gcc/pic32mx/4.8.3/../../../../pic32mx/lib\liblega-c.a(snprintf_cdnopsuxX.eo)
                0x9d02d530                _snprintf_cdnopsuxX
                0x9d02d530                _snprintf_cdnopuxX

.text.litodp    0x9d02d5ac       0x78
 .text.litodp   0x9d02d5ac       0x78 c:/program files/microchip/xc32/v2.50/bin/bin/../../lib/gcc/pic32mx/4.8.3/../../../../pic32mx/lib\libm.a(litodp.o)
                0x9d02d5ac                litodp
                0x9d02d5ac                __floatsidf

.rodata         0x9d02d624       0x6c
 .rodata        0x9d02d624       0x6c build/default/debug/NetworkInterface_LAN9250.o

.text.memmove   0x9d02d690       0x68
 .text.memmove  0x9d02d690       0x68 c:/program files/microchip/xc32/v2.50/bin/bin/../../lib/gcc/pic32mx/4.8.3/../../../../pic32mx/lib\liblega-c.a(memmove.o)
                0x9d02d690                memmove

.text.__sputn   0x9d02d6f8       0x68
 .text.__sputn  0x9d02d6f8       0x68 c:/program files/microchip/xc32/v2.50/bin/bin/../../lib/gcc/pic32mx/4.8.3/../../../../pic32mx/lib\liblega-c.a(_doprnt.o)

.text.vsprintf  0x9d02d760       0x5c
 .text.vsprintf
                0x9d02d760       0x5c c:/program files/microchip/xc32/v2.50/bin/bin/../../lib/gcc/pic32mx/4.8.3/../../../../pic32mx/lib\liblega-c.a(vsprintf.o)
                0x9d02d760                vsprintf

.text.rand      0x9d02d7bc       0x58
 .text.rand     0x9d02d7bc       0x58 c:/program files/microchip/xc32/v2.50/bin/bin/../../lib/gcc/pic32mx/4.8.3/../../../../pic32mx/lib\liblega-c.a(rand.o)
                0x9d02d7bc                rand

.text.main_entry
                0x9d02d814       0x54
 .text.main_entry
                0x9d02d814       0x54 C:\Users\Thorb\AppData\Local\Temp\ccdgVN5b.o
                0x9d02d848                __crt0_exit

.text._mon_write
                0x9d02d868       0x4c
 .text._mon_write
                0x9d02d868       0x4c c:/program files/microchip/xc32/v2.50/bin/bin/../../lib/gcc/pic32mx/4.8.3/../../../../pic32mx/lib\libpic32.a(_mon_write.o)
                0x9d02d868                _mon_write

.text._bootstrap_exception_handler
                0x9d02d8b4       0x48
 .text._bootstrap_exception_handler
                0x9d02d8b4       0x48 c:/program files/microchip/xc32/v2.50/bin/bin/../../lib/gcc/pic32mx/4.8.3/../../../../pic32mx/lib\libpic32.a(default-bootstrap-exception-handler.o)
                0x9d02d8b4                _bootstrap_exception_handler

.vector_default
                0x9d02d8fc       0x48
 .vector_default
                0x9d02d8fc       0x48 c:/program files/microchip/xc32/v2.50/bin/bin/../../lib/gcc/pic32mx/4.8.3/../../../../pic32mx/lib\libpic32.a(defaultinterrupt.o)
                0x9d02d8fc                _DefaultInterrupt

.text           0x9d02d944       0x44
 .text          0x9d02d944       0x44 c:/program files/microchip/xc32/v2.50/bin/bin/../../lib/gcc/pic32mx/4.8.3/../../../../pic32mx/lib\pic32_software_reset.o
                0x9d02d944                __pic32_software_reset

.text.srand     0x9d02d988       0x44
 .text.srand    0x9d02d988       0x44 c:/program files/microchip/xc32/v2.50/bin/bin/../../lib/gcc/pic32mx/4.8.3/../../../../pic32mx/lib\liblega-c.a(rand.o)
                0x9d02d988                srand

.text._weak_pthread_once
                0x9d02d9cc       0x38
 .text._weak_pthread_once
                0x9d02d9cc       0x38 c:/program files/microchip/xc32/v2.50/bin/bin/../../lib/gcc/pic32mx/4.8.3/../../../../pic32mx/lib\liblega-c.a(stubs.o)
                0x9d02d9cc                pthread_once
                0x9d02d9cc                _pthread_once
                0x9d02d9cc                _weak_pthread_once

.text._filbuf_simple
                0x9d02da04       0x34
 .text._filbuf_simple
                0x9d02da04       0x34 c:/program files/microchip/xc32/v2.50/bin/bin/../../lib/gcc/pic32mx/4.8.3/../../../../pic32mx/lib\liblega-c.a(_iobfuncs.o)
                0x9d02da04                _filbuf_simple

.text._fsync_simple
                0x9d02da38       0x30
 .text._fsync_simple
                0x9d02da38       0x30 c:/program files/microchip/xc32/v2.50/bin/bin/../../lib/gcc/pic32mx/4.8.3/../../../../pic32mx/lib\liblega-c.a(_iobfuncs.o)
                0x9d02da38                _fsync_simple

.rodata         0x9d02da68       0x28
 .rodata        0x9d02da68       0x28 c:/program files/microchip/xc32/v2.50/bin/bin/../../lib/gcc/pic32mx/4.8.3/../../../../pic32mx/lib\liblega-c.a(_doprnt_cdnopsuxX.eo)

.text.putchar   0x9d02da90       0x24
 .text.putchar  0x9d02da90       0x24 c:/program files/microchip/xc32/v2.50/bin/bin/../../lib/gcc/pic32mx/4.8.3/../../../../pic32mx/lib\liblega-c.a(fputc.o)
                0x9d02da90                putchar

.text.rand_r    0x9d02dab4       0x20
 .text.rand_r   0x9d02dab4       0x20 c:/program files/microchip/xc32/v2.50/bin/bin/../../lib/gcc/pic32mx/4.8.3/../../../../pic32mx/lib\liblega-c.a(rand.o)
                0x9d02dab4                rand_r

.text._vfprintf_cdnopsuxX
                0x9d02dad4       0x1c
 .text._vfprintf_cdnopsuxX
                0x9d02dad4       0x1c c:/program files/microchip/xc32/v2.50/bin/bin/../../lib/gcc/pic32mx/4.8.3/../../../../pic32mx/lib\liblega-c.a(_doprnt_cdnopsuxX.eo)
                0x9d02dad4                _vfprintf_cdnopsuxX

.text.vfprintf  0x9d02daf0       0x1c
 .text.vfprintf
                0x9d02daf0       0x1c c:/program files/microchip/xc32/v2.50/bin/bin/../../lib/gcc/pic32mx/4.8.3/../../../../pic32mx/lib\liblega-c.a(_doprnt.o)
                0x9d02daf0                vfprintf

.text.putc      0x9d02db0c       0x1c
 .text.putc     0x9d02db0c       0x1c c:/program files/microchip/xc32/v2.50/bin/bin/../../lib/gcc/pic32mx/4.8.3/../../../../pic32mx/lib\liblega-c.a(fputc.o)
                0x9d02db0c                putc

.rodata         0x9d02db28       0x18
 .rodata        0x9d02db28       0x18 build/default/debug/FreeRTOS/Core/portable/MPLAB/PIC32MX/port.o
                0x9d02db3c                xISRStackTop

.text           0x9d02db40       0x18
 .text          0x9d02db40       0x18 c:/program files/microchip/xc32/v2.50/bin/bin/../../lib/gcc/pic32mx/4.8.3/../../../../pic32mx/lib\libpic32.a(default-nmi-handler.o)
                0x9d02db40                _nmi_handler

.rodata         0x9d02db58       0x14
 .rodata        0x9d02db58       0x14 build/default/debug/main.o

.text._io_exit  0x9d02db6c       0x28
 .text._io_exit
                0x9d02db6c       0x14 c:/program files/microchip/xc32/v2.50/bin/bin/../../lib/gcc/pic32mx/4.8.3/../../../../pic32mx/lib\liblega-c.a(_doprnt_cdnopsuxX.eo)
                0x9d02db6c                _io_exit
 .text._io_exit
                0x9d02db80       0x14 c:/program files/microchip/xc32/v2.50/bin/bin/../../lib/gcc/pic32mx/4.8.3/../../../../pic32mx/lib\liblega-c.a(_doprnt.o)

.rodata         0x9d02db94       0x14
 .rodata        0x9d02db94       0x14 c:/program files/microchip/xc32/v2.50/bin/bin/../../lib/gcc/pic32mx/4.8.3/../../../../pic32mx/lib\liblega-c.a(_iobdata.o)
                0x9d02db94                _io_funcs

.text._io_exit  0x9d02dba8       0x14
 .text._io_exit
                0x9d02dba8       0x14 c:/program files/microchip/xc32/v2.50/bin/bin/../../lib/gcc/pic32mx/4.8.3/../../../../pic32mx/lib\liblega-c.a(_iobfuncs.o)

.rodata         0x9d02dbbc       0x14
 .rodata        0x9d02dbbc       0x14 c:/program files/microchip/xc32/v2.50/bin/bin/../../lib/gcc/pic32mx/4.8.3/../../../../pic32mx/lib\liblega-c.a(_iobstring.o)
                0x9d02dbbc                _io_strfuncs

.text.__exception_handler_break
                0x9d02dbd0        0xc
 .text.__exception_handler_break
                0x9d02dbd0        0xc c:/program files/microchip/xc32/v2.50/bin/bin/../../lib/gcc/pic32mx/4.8.3/../../../../pic32mx/lib\software-debug-break.o
                0x9d02dbd0                __exception_handler_break

.rodata         0x9d02dbdc       0x14
 .rodata        0x9d02dbdc        0xc build/default/debug/LED.o
 .rodata        0x9d02dbe8        0x8 build/default/debug/FreeRTOS/Core/tasks.o

.rodata         0x9d02dbf0       0x10
 .rodata        0x9d02dbf0        0x8 build/default/debug/FreeRTOS/Core/timers.o
 .rodata        0x9d02dbf8        0x8 build/default/debug/FiberComms.o

.text._on_reset
                0x9d02dc00        0x8
 .text._on_reset
                0x9d02dc00        0x8 c:/program files/microchip/xc32/v2.50/bin/bin/../../lib/gcc/pic32mx/4.8.3/../../../../pic32mx/lib\libpic32.a(default-on-reset.o)
                0x9d02dc00                _on_reset

.text._on_bootstrap
                0x9d02dc08        0x8
 .text._on_bootstrap
                0x9d02dc08        0x8 c:/program files/microchip/xc32/v2.50/bin/bin/../../lib/gcc/pic32mx/4.8.3/../../../../pic32mx/lib\libpic32.a(default-on-bootstrap.o)
                0x9d02dc08                _on_bootstrap

.text._weak_pthread_mutex_init
                0x9d02dc10        0x8
 .text._weak_pthread_mutex_init
                0x9d02dc10        0x8 c:/program files/microchip/xc32/v2.50/bin/bin/../../lib/gcc/pic32mx/4.8.3/../../../../pic32mx/lib\liblega-c.a(stubs.o)
                0x9d02dc10                pthread_mutex_init
                0x9d02dc10                _weak_pthread_mutex_init

.text._weak_pthread_mutex_destroy
                0x9d02dc18        0x8
 .text._weak_pthread_mutex_destroy
                0x9d02dc18        0x8 c:/program files/microchip/xc32/v2.50/bin/bin/../../lib/gcc/pic32mx/4.8.3/../../../../pic32mx/lib\liblega-c.a(stubs.o)
                0x9d02dc18                pthread_mutex_destroy
                0x9d02dc18                _weak_pthread_mutex_destroy

.text._weak_pthread_mutex_lock
                0x9d02dc20        0x8
 .text._weak_pthread_mutex_lock
                0x9d02dc20        0x8 c:/program files/microchip/xc32/v2.50/bin/bin/../../lib/gcc/pic32mx/4.8.3/../../../../pic32mx/lib\liblega-c.a(stubs.o)
                0x9d02dc20                pthread_mutex_lock
                0x9d02dc20                _weak_pthread_mutex_lock

.text._weak_pthread_mutex_trylock
                0x9d02dc28        0x8
 .text._weak_pthread_mutex_trylock
                0x9d02dc28        0x8 c:/program files/microchip/xc32/v2.50/bin/bin/../../lib/gcc/pic32mx/4.8.3/../../../../pic32mx/lib\liblega-c.a(stubs.o)
                0x9d02dc28                pthread_mutex_trylock
                0x9d02dc28                _weak_pthread_mutex_trylock

.text._weak_pthread_mutex_unlock
                0x9d02dc30        0x8
 .text._weak_pthread_mutex_unlock
                0x9d02dc30        0x8 c:/program files/microchip/xc32/v2.50/bin/bin/../../lib/gcc/pic32mx/4.8.3/../../../../pic32mx/lib\liblega-c.a(stubs.o)
                0x9d02dc30                pthread_mutex_unlock
                0x9d02dc30                _weak_pthread_mutex_unlock

.text._weak_pthread_mutex_setname_np
                0x9d02dc38        0x8
 .text._weak_pthread_mutex_setname_np
                0x9d02dc38        0x8 c:/program files/microchip/xc32/v2.50/bin/bin/../../lib/gcc/pic32mx/4.8.3/../../../../pic32mx/lib\liblega-c.a(stubs.o)
                0x9d02dc38                _weak_pthread_mutex_setname_np
                0x9d02dc38                pthread_mutex_setname_np

.text._weak_pthread_mutexattr_init
                0x9d02dc40        0x8
 .text._weak_pthread_mutexattr_init
                0x9d02dc40        0x8 c:/program files/microchip/xc32/v2.50/bin/bin/../../lib/gcc/pic32mx/4.8.3/../../../../pic32mx/lib\liblega-c.a(stubs.o)
                0x9d02dc40                pthread_mutexattr_init
                0x9d02dc40                _weak_pthread_mutexattr_init

.text._weak_pthread_mutexattr_destroy
                0x9d02dc48        0x8
 .text._weak_pthread_mutexattr_destroy
                0x9d02dc48        0x8 c:/program files/microchip/xc32/v2.50/bin/bin/../../lib/gcc/pic32mx/4.8.3/../../../../pic32mx/lib\liblega-c.a(stubs.o)
                0x9d02dc48                _weak_pthread_mutexattr_destroy
                0x9d02dc48                pthread_mutexattr_destroy

.text._weak_pthread_mutexattr_setname_np
                0x9d02dc50        0x8
 .text._weak_pthread_mutexattr_setname_np
                0x9d02dc50        0x8 c:/program files/microchip/xc32/v2.50/bin/bin/../../lib/gcc/pic32mx/4.8.3/../../../../pic32mx/lib\liblega-c.a(stubs.o)
                0x9d02dc50                pthread_mutexattr_setname_np
                0x9d02dc50                _weak_pthread_mutexattr_setname_np

.text._weak_pthread_mutexattr_settype_np
                0x9d02dc58        0x8
 .text._weak_pthread_mutexattr_settype_np
                0x9d02dc58        0x8 c:/program files/microchip/xc32/v2.50/bin/bin/../../lib/gcc/pic32mx/4.8.3/../../../../pic32mx/lib\liblega-c.a(stubs.o)
                0x9d02dc58                pthread_mutexattr_settype_np
                0x9d02dc58                _weak_pthread_mutexattr_settype_np

.text._weak_pthread_sysconf_np
                0x9d02dc60        0x8
 .text._weak_pthread_sysconf_np
                0x9d02dc60        0x8 c:/program files/microchip/xc32/v2.50/bin/bin/../../lib/gcc/pic32mx/4.8.3/../../../../pic32mx/lib\liblega-c.a(stubs.o)
                0x9d02dc60                pthread_sysconf_np
                0x9d02dc60                _weak_pthread_sysconf_np

.text._weak_pthread_sigdisable_np
                0x9d02dc68        0x8
 .text._weak_pthread_sigdisable_np
                0x9d02dc68        0x8 c:/program files/microchip/xc32/v2.50/bin/bin/../../lib/gcc/pic32mx/4.8.3/../../../../pic32mx/lib\liblega-c.a(stubs.o)
                0x9d02dc68                pthread_sigdisable_np
                0x9d02dc68                _weak_pthread_sigdisable_np

.text._weak_pthread_sigrestore_np
                0x9d02dc70        0x8
 .text._weak_pthread_sigrestore_np
                0x9d02dc70        0x8 c:/program files/microchip/xc32/v2.50/bin/bin/../../lib/gcc/pic32mx/4.8.3/../../../../pic32mx/lib\liblega-c.a(stubs.o)
                0x9d02dc70                _weak_pthread_sigrestore_np
                0x9d02dc70                pthread_sigrestore_np

.text._weak__pthread_cleanup_push
                0x9d02dc78        0x8
 .text._weak__pthread_cleanup_push
                0x9d02dc78        0x8 c:/program files/microchip/xc32/v2.50/bin/bin/../../lib/gcc/pic32mx/4.8.3/../../../../pic32mx/lib\liblega-c.a(stubs.o)
                0x9d02dc78                _pthread_cleanup_push
                0x9d02dc78                _weak__pthread_cleanup_push

.text._weak__pthread_cleanup_pop
                0x9d02dc80        0x8
 .text._weak__pthread_cleanup_pop
                0x9d02dc80        0x8 c:/program files/microchip/xc32/v2.50/bin/bin/../../lib/gcc/pic32mx/4.8.3/../../../../pic32mx/lib\liblega-c.a(stubs.o)
                0x9d02dc80                _weak__pthread_cleanup_pop
                0x9d02dc80                _pthread_cleanup_pop

.text._weak__pthread_cleanup_push_defer
                0x9d02dc88        0x8
 .text._weak__pthread_cleanup_push_defer
                0x9d02dc88        0x8 c:/program files/microchip/xc32/v2.50/bin/bin/../../lib/gcc/pic32mx/4.8.3/../../../../pic32mx/lib\liblega-c.a(stubs.o)
                0x9d02dc88                _pthread_cleanup_push_defer
                0x9d02dc88                _weak__pthread_cleanup_push_defer

.text._weak__pthread_cleanup_pop_restore
                0x9d02dc90        0x8
 .text._weak__pthread_cleanup_pop_restore
                0x9d02dc90        0x8 c:/program files/microchip/xc32/v2.50/bin/bin/../../lib/gcc/pic32mx/4.8.3/../../../../pic32mx/lib\liblega-c.a(stubs.o)
                0x9d02dc90                _weak__pthread_cleanup_pop_restore
                0x9d02dc90                _pthread_cleanup_pop_restore

.text._weak_pthread_key_create
                0x9d02dc98        0x8
 .text._weak_pthread_key_create
                0x9d02dc98        0x8 c:/program files/microchip/xc32/v2.50/bin/bin/../../lib/gcc/pic32mx/4.8.3/../../../../pic32mx/lib\liblega-c.a(stubs.o)
                0x9d02dc98                _weak_pthread_key_create
                0x9d02dc98                pthread_key_create

.text._weak_pthread_setspecific
                0x9d02dca0        0x8
 .text._weak_pthread_setspecific
                0x9d02dca0        0x8 c:/program files/microchip/xc32/v2.50/bin/bin/../../lib/gcc/pic32mx/4.8.3/../../../../pic32mx/lib\liblega-c.a(stubs.o)
                0x9d02dca0                pthread_setspecific
                0x9d02dca0                _weak_pthread_setspecific

.text._weak_pthread_getspecific
                0x9d02dca8        0x8
 .text._weak_pthread_getspecific
                0x9d02dca8        0x8 c:/program files/microchip/xc32/v2.50/bin/bin/../../lib/gcc/pic32mx/4.8.3/../../../../pic32mx/lib\liblega-c.a(stubs.o)
                0x9d02dca8                _weak_pthread_getspecific
                0x9d02dca8                pthread_getspecific

.text._weak__libc_private_storage
                0x9d02dcb0        0x8
 .text._weak__libc_private_storage
                0x9d02dcb0        0x8 c:/program files/microchip/xc32/v2.50/bin/bin/../../lib/gcc/pic32mx/4.8.3/../../../../pic32mx/lib\liblega-c.a(stubs.o)
                0x9d02dcb0                _weak__libc_private_storage
                0x9d02dcb0                _libc_private_storage

.text._filbuf_string
                0x9d02dcb8        0x8
 .text._filbuf_string
                0x9d02dcb8        0x8 c:/program files/microchip/xc32/v2.50/bin/bin/../../lib/gcc/pic32mx/4.8.3/../../../../pic32mx/lib\liblega-c.a(_iobstring.o)

.text._flsbuf_string
                0x9d02dcc0        0x8
 .text._flsbuf_string
                0x9d02dcc0        0x8 c:/program files/microchip/xc32/v2.50/bin/bin/../../lib/gcc/pic32mx/4.8.3/../../../../pic32mx/lib\liblega-c.a(_iobstring.o)

.text._fflush_string
                0x9d02dcc8        0x8
 .text._fflush_string
                0x9d02dcc8        0x8 c:/program files/microchip/xc32/v2.50/bin/bin/../../lib/gcc/pic32mx/4.8.3/../../../../pic32mx/lib\liblega-c.a(_iobstring.o)

.text._fwrite_string
                0x9d02dcd0        0x8
 .text._fwrite_string
                0x9d02dcd0        0x8 c:/program files/microchip/xc32/v2.50/bin/bin/../../lib/gcc/pic32mx/4.8.3/../../../../pic32mx/lib\liblega-c.a(_iobstring.o)

.text._fsync_string
                0x9d02dcd8        0x8
 .text._fsync_string
                0x9d02dcd8        0x8 c:/program files/microchip/xc32/v2.50/bin/bin/../../lib/gcc/pic32mx/4.8.3/../../../../pic32mx/lib\liblega-c.a(_iobstring.o)

.rodata         0x9d02d3ac        0x4
 .rodata        0x9d02d3ac        0x4 build/default/debug/FreeRTOS/Core/portable/MemMang/heap_4.o

.rodata         0x9d02dce0        0x4
 .rodata        0x9d02dce0        0x4 build/default/debug/FreeRTOS/TCPIP/portable/BufferManagement/BufferAllocation_2.o
                0x9d02dce0                xBufferAllocFixedSize

.text%z207      0x00000000        0x0
 .text          0x00000000        0x0 c:/program files/microchip/xc32/v2.50/bin/bin/../../lib/gcc/pic32mx/4.8.3/../../../../pic32mx/lib\libpic32.a(_mon_putc.o)

.text%z208      0x00000000        0x0
 .text          0x00000000        0x0 c:/program files/microchip/xc32/v2.50/bin/bin/../../lib/gcc/pic32mx/4.8.3/../../../../pic32mx/lib\libpic32.a(xc32_uart.o)

.text%z209      0x00000000        0x0
 .text          0x00000000        0x0 c:/program files/microchip/xc32/v2.50/bin/bin/../../lib/gcc/pic32mx/4.8.3/../../../../pic32mx/lib\libpic32.a(_mon_write.o)

.text%z210      0x00000000        0x0
 .text          0x00000000        0x0 c:/program files/microchip/xc32/v2.50/bin/bin/../../lib/gcc/pic32mx/4.8.3/../../../../pic32mx/lib\libpic32.a(_mon_getc.o)

.text%z211      0x00000000        0x0
 .text          0x00000000        0x0 c:/program files/microchip/xc32/v2.50/bin/bin/../../lib/gcc/pic32mx/4.8.3/../../../../pic32mx/lib\libm.a(litodp.o)

.text%z212      0x00000000        0x0
 .text          0x00000000        0x0 c:/program files/microchip/xc32/v2.50/bin/bin/../../lib/gcc/pic32mx/4.8.3/../../../../pic32mx/lib\libm.a(dptoli.o)

.text%z213      0x00000000        0x0
 .text          0x00000000        0x0 c:/program files/microchip/xc32/v2.50/bin/bin/../../lib/gcc/pic32mx/4.8.3/../../../../pic32mx/lib\libm.a(dpcmp.o)

.text%z214      0x00000000        0x0
 .text          0x00000000        0x0 c:/program files/microchip/xc32/v2.50/bin/bin/../../lib/gcc/pic32mx/4.8.3/../../../../pic32mx/lib\libm.a(dp32subadd.o)

.text%z215      0x00000000        0x0
 .text          0x00000000        0x0 c:/program files/microchip/xc32/v2.50/bin/bin/../../lib/gcc/pic32mx/4.8.3/../../../../pic32mx/lib\libm.a(dp32mul.o)

.text%z216      0x00000000        0x0
 .text          0x00000000        0x0 c:/program files/microchip/xc32/v2.50/bin/bin/../../lib/gcc/pic32mx/4.8.3/../../../../pic32mx/lib\libm.a(dp32div.o)

.text%z217      0x00000000        0x0
 .text          0x00000000        0x0 c:/program files/microchip/xc32/v2.50/bin/bin/../../lib/gcc/pic32mx/4.8.3/../../../../pic32mx/lib\libm.a(dpmodf.o)

.text%z218      0x00000000        0x0
 .text          0x00000000        0x0 c:/program files/microchip/xc32/v2.50/bin/bin/../../lib/gcc/pic32mx/4.8.3/../../../../pic32mx/lib\liblega-c.a(errno.o)

.text%z219      0x00000000        0x0
 .text          0x00000000        0x0 c:/program files/microchip/xc32/v2.50/bin/bin/../../lib/gcc/pic32mx/4.8.3/../../../../pic32mx/lib\liblega-c.a(fputc.o)

.text%z220      0x00000000        0x0
 .text          0x00000000        0x0 c:/program files/microchip/xc32/v2.50/bin/bin/../../lib/gcc/pic32mx/4.8.3/../../../../pic32mx/lib\liblega-c.a(_iobstring.o)

.text%z221      0x00000000        0x0
 .text          0x00000000        0x0 c:/program files/microchip/xc32/v2.50/bin/bin/../../lib/gcc/pic32mx/4.8.3/../../../../pic32mx/lib\liblega-c.a(_iobfuncs.o)

.text%z222      0x00000000        0x0
 .text          0x00000000        0x0 c:/program files/microchip/xc32/v2.50/bin/bin/../../lib/gcc/pic32mx/4.8.3/../../../../pic32mx/lib\liblega-c.a(_iobdata.o)

.text%z223      0x00000000        0x0
 .text          0x00000000        0x0 c:/program files/microchip/xc32/v2.50/bin/bin/../../lib/gcc/pic32mx/4.8.3/../../../../pic32mx/lib\liblega-c.a(_doprnt.o)

.text%z224      0x00000000        0x0
 .text          0x00000000        0x0 c:/program files/microchip/xc32/v2.50/bin/bin/../../lib/gcc/pic32mx/4.8.3/../../../../pic32mx/lib\liblega-c.a(_doprnt_cdnopsuxX.eo)

.text%z225      0x00000000        0x0
 .text          0x00000000        0x0 c:/program files/microchip/xc32/v2.50/bin/bin/../../lib/gcc/pic32mx/4.8.3/../../../../pic32mx/lib\liblega-c.a(stubs.o)

.text%z226      0x00000000        0x0
 .text          0x00000000        0x0 c:/program files/microchip/xc32/v2.50/bin/bin/../../lib/gcc/pic32mx/4.8.3/../../../../pic32mx/lib\liblega-c.a(vsprintf.o)

.text%z227      0x00000000        0x0
 .text          0x00000000        0x0 c:/program files/microchip/xc32/v2.50/bin/bin/../../lib/gcc/pic32mx/4.8.3/../../../../pic32mx/lib\liblega-c.a(snprintf_cdnopsuxX.eo)

.text%z228      0x00000000        0x0
 .text          0x00000000        0x0 c:/program files/microchip/xc32/v2.50/bin/bin/../../lib/gcc/pic32mx/4.8.3/../../../../pic32mx/lib\liblega-c.a(rand.o)

.text%z229      0x00000000        0x0
 .text          0x00000000        0x0 c:/program files/microchip/xc32/v2.50/bin/bin/../../lib/gcc/pic32mx/4.8.3/../../../../pic32mx/lib\liblega-c.a(memmove.o)

.text%z230      0x00000000        0x0
 .text          0x00000000        0x0 c:/program files/microchip/xc32/v2.50/bin/bin/../../lib/gcc/pic32mx/4.8.3/../../../../pic32mx/lib\libpic32.a(defaultinterrupt.o)

.text%z231      0x00000000        0x0
 .text          0x00000000        0x0 c:/program files/microchip/xc32/v2.50/bin/bin/../../lib/gcc/pic32mx/4.8.3/../../../../pic32mx/lib\libpic32.a(vector39.o)

.text%z232      0x00000000        0x0
 .text          0x00000000        0x0 c:/program files/microchip/xc32/v2.50/bin/bin/../../lib/gcc/pic32mx/4.8.3/../../../../pic32mx/lib\libpic32.a(vector38.o)

.text%z233      0x00000000        0x0
 .text          0x00000000        0x0 c:/program files/microchip/xc32/v2.50/bin/bin/../../lib/gcc/pic32mx/4.8.3/../../../../pic32mx/lib\libpic32.a(vector37.o)

.text%z234      0x00000000        0x0
 .text          0x00000000        0x0 c:/program files/microchip/xc32/v2.50/bin/bin/../../lib/gcc/pic32mx/4.8.3/../../../../pic32mx/lib\libpic32.a(vector36.o)

.text%z235      0x00000000        0x0
 .text          0x00000000        0x0 c:/program files/microchip/xc32/v2.50/bin/bin/../../lib/gcc/pic32mx/4.8.3/../../../../pic32mx/lib\libpic32.a(vector35.o)

.text%z236      0x00000000        0x0
 .text          0x00000000        0x0 c:/program files/microchip/xc32/v2.50/bin/bin/../../lib/gcc/pic32mx/4.8.3/../../../../pic32mx/lib\libpic32.a(vector34.o)

.text%z237      0x00000000        0x0
 .text          0x00000000        0x0 c:/program files/microchip/xc32/v2.50/bin/bin/../../lib/gcc/pic32mx/4.8.3/../../../../pic32mx/lib\libpic32.a(vector33.o)

.text%z238      0x00000000        0x0
 .text          0x00000000        0x0 c:/program files/microchip/xc32/v2.50/bin/bin/../../lib/gcc/pic32mx/4.8.3/../../../../pic32mx/lib\libpic32.a(vector32.o)

.text%z239      0x00000000        0x0
 .text          0x00000000        0x0 c:/program files/microchip/xc32/v2.50/bin/bin/../../lib/gcc/pic32mx/4.8.3/../../../../pic32mx/lib\libpic32.a(vector31.o)

.text%z240      0x00000000        0x0
 .text          0x00000000        0x0 c:/program files/microchip/xc32/v2.50/bin/bin/../../lib/gcc/pic32mx/4.8.3/../../../../pic32mx/lib\libpic32.a(vector30.o)

.text%z241      0x00000000        0x0
 .text          0x00000000        0x0 c:/program files/microchip/xc32/v2.50/bin/bin/../../lib/gcc/pic32mx/4.8.3/../../../../pic32mx/lib\libpic32.a(vector29.o)

.text%z242      0x00000000        0x0
 .text          0x00000000        0x0 c:/program files/microchip/xc32/v2.50/bin/bin/../../lib/gcc/pic32mx/4.8.3/../../../../pic32mx/lib\libpic32.a(vector28.o)

.text%z243      0x00000000        0x0
 .text          0x00000000        0x0 c:/program files/microchip/xc32/v2.50/bin/bin/../../lib/gcc/pic32mx/4.8.3/../../../../pic32mx/lib\libpic32.a(vector27.o)

.text%z244      0x00000000        0x0
 .text          0x00000000        0x0 c:/program files/microchip/xc32/v2.50/bin/bin/../../lib/gcc/pic32mx/4.8.3/../../../../pic32mx/lib\libpic32.a(vector26.o)

.text%z245      0x00000000        0x0
 .text          0x00000000        0x0 c:/program files/microchip/xc32/v2.50/bin/bin/../../lib/gcc/pic32mx/4.8.3/../../../../pic32mx/lib\libpic32.a(vector25.o)

.text%z246      0x00000000        0x0
 .text          0x00000000        0x0 c:/program files/microchip/xc32/v2.50/bin/bin/../../lib/gcc/pic32mx/4.8.3/../../../../pic32mx/lib\libpic32.a(vector24.o)

.text%z247      0x00000000        0x0
 .text          0x00000000        0x0 c:/program files/microchip/xc32/v2.50/bin/bin/../../lib/gcc/pic32mx/4.8.3/../../../../pic32mx/lib\libpic32.a(vector23.o)

.text%z248      0x00000000        0x0
 .text          0x00000000        0x0 c:/program files/microchip/xc32/v2.50/bin/bin/../../lib/gcc/pic32mx/4.8.3/../../../../pic32mx/lib\libpic32.a(vector22.o)

.text%z249      0x00000000        0x0
 .text          0x00000000        0x0 c:/program files/microchip/xc32/v2.50/bin/bin/../../lib/gcc/pic32mx/4.8.3/../../../../pic32mx/lib\libpic32.a(vector21.o)

.text%z250      0x00000000        0x0
 .text          0x00000000        0x0 c:/program files/microchip/xc32/v2.50/bin/bin/../../lib/gcc/pic32mx/4.8.3/../../../../pic32mx/lib\libpic32.a(vector20.o)

.text%z251      0x00000000        0x0
 .text          0x00000000        0x0 c:/program files/microchip/xc32/v2.50/bin/bin/../../lib/gcc/pic32mx/4.8.3/../../../../pic32mx/lib\libpic32.a(vector19.o)

.text%z252      0x00000000        0x0
 .text          0x00000000        0x0 c:/program files/microchip/xc32/v2.50/bin/bin/../../lib/gcc/pic32mx/4.8.3/../../../../pic32mx/lib\libpic32.a(vector18.o)

.text%z253      0x00000000        0x0
 .text          0x00000000        0x0 c:/program files/microchip/xc32/v2.50/bin/bin/../../lib/gcc/pic32mx/4.8.3/../../../../pic32mx/lib\libpic32.a(vector17.o)

.text%z254      0x00000000        0x0
 .text          0x00000000        0x0 c:/program files/microchip/xc32/v2.50/bin/bin/../../lib/gcc/pic32mx/4.8.3/../../../../pic32mx/lib\libpic32.a(vector16.o)

.text%z255      0x00000000        0x0
 .text          0x00000000        0x0 c:/program files/microchip/xc32/v2.50/bin/bin/../../lib/gcc/pic32mx/4.8.3/../../../../pic32mx/lib\libpic32.a(vector15.o)

.text%z256      0x00000000        0x0
 .text          0x00000000        0x0 c:/program files/microchip/xc32/v2.50/bin/bin/../../lib/gcc/pic32mx/4.8.3/../../../../pic32mx/lib\libpic32.a(vector14.o)

.text%z257      0x00000000        0x0
 .text          0x00000000        0x0 c:/program files/microchip/xc32/v2.50/bin/bin/../../lib/gcc/pic32mx/4.8.3/../../../../pic32mx/lib\libpic32.a(vector13.o)

.text%z258      0x00000000        0x0
 .text          0x00000000        0x0 c:/program files/microchip/xc32/v2.50/bin/bin/../../lib/gcc/pic32mx/4.8.3/../../../../pic32mx/lib\libpic32.a(vector12.o)

.text%z259      0x00000000        0x0
 .text          0x00000000        0x0 c:/program files/microchip/xc32/v2.50/bin/bin/../../lib/gcc/pic32mx/4.8.3/../../../../pic32mx/lib\libpic32.a(vector11.o)

.text%z260      0x00000000        0x0
 .text          0x00000000        0x0 c:/program files/microchip/xc32/v2.50/bin/bin/../../lib/gcc/pic32mx/4.8.3/../../../../pic32mx/lib\libpic32.a(vector10.o)

.text%z261      0x00000000        0x0
 .text          0x00000000        0x0 c:/program files/microchip/xc32/v2.50/bin/bin/../../lib/gcc/pic32mx/4.8.3/../../../../pic32mx/lib\libpic32.a(vector9.o)

.text%z262      0x00000000        0x0
 .text          0x00000000        0x0 c:/program files/microchip/xc32/v2.50/bin/bin/../../lib/gcc/pic32mx/4.8.3/../../../../pic32mx/lib\libpic32.a(vector8.o)

.text%z263      0x00000000        0x0
 .text          0x00000000        0x0 c:/program files/microchip/xc32/v2.50/bin/bin/../../lib/gcc/pic32mx/4.8.3/../../../../pic32mx/lib\libpic32.a(vector7.o)

.text%z264      0x00000000        0x0
 .text          0x00000000        0x0 c:/program files/microchip/xc32/v2.50/bin/bin/../../lib/gcc/pic32mx/4.8.3/../../../../pic32mx/lib\libpic32.a(vector6.o)

.text%z265      0x00000000        0x0
 .text          0x00000000        0x0 c:/program files/microchip/xc32/v2.50/bin/bin/../../lib/gcc/pic32mx/4.8.3/../../../../pic32mx/lib\libpic32.a(vector5.o)

.text%z266      0x00000000        0x0
 .text          0x00000000        0x0 c:/program files/microchip/xc32/v2.50/bin/bin/../../lib/gcc/pic32mx/4.8.3/../../../../pic32mx/lib\libpic32.a(vector3.o)

.text%z267      0x00000000        0x0
 .text          0x00000000        0x0 c:/program files/microchip/xc32/v2.50/bin/bin/../../lib/gcc/pic32mx/4.8.3/../../../../pic32mx/lib\libpic32.a(vector2.o)

.text%z268      0x00000000        0x0
 .text          0x00000000        0x0 c:/program files/microchip/xc32/v2.50/bin/bin/../../lib/gcc/pic32mx/4.8.3/../../../../pic32mx/lib\libpic32.a(vector0.o)

.text%z269      0x00000000        0x0
 .text          0x00000000        0x0 c:/program files/microchip/xc32/v2.50/bin/bin/../../lib/gcc/pic32mx/4.8.3/../../../../pic32mx/lib\libpic32.a(general-exception.o)

.text%z270      0x00000000        0x0
 .text          0x00000000        0x0 c:/program files/microchip/xc32/v2.50/bin/bin/../../lib/gcc/pic32mx/4.8.3/../../../../pic32mx/lib\libpic32.a(default-on-bootstrap.o)

.text%z271      0x00000000        0x0
 .text          0x00000000        0x0 c:/program files/microchip/xc32/v2.50/bin/bin/../../lib/gcc/pic32mx/4.8.3/../../../../pic32mx/lib\libpic32.a(default-on-reset.o)

.text%z272      0x00000000        0x0
 .text          0x00000000        0x0 c:/program files/microchip/xc32/v2.50/bin/bin/../../lib/gcc/pic32mx/4.8.3/../../../../pic32mx/lib\libpic32.a(default-bootstrap-exception-handler.o)

.text%z273      0x00000000        0x0
 .text          0x00000000        0x0 c:/program files/microchip/xc32/v2.50/bin/bin/../../lib/gcc/pic32mx/4.8.3/../../../../pic32mx/lib/./proc/32MX270F256B\processor.o

.text%z274      0x00000000        0x0
 .text          0x00000000        0x0 C:\Users\Thorb\AppData\Local\Temp\ccH318PN.o

.text%z275      0x00000000        0x0
 .text          0x00000000        0x0 C:\Users\Thorb\AppData\Local\Temp\ccDG7xxo.o

.text%z276      0x00000000        0x0
 .text          0x00000000        0x0 C:\Users\Thorb\AppData\Local\Temp\ccdgVN5b.o

.text%z277      0x00000000        0x0
 .text          0x00000000        0x0 c:/program files/microchip/xc32/v2.50/bin/bin/../../lib/gcc/pic32mx/4.8.3/../../../../pic32mx/lib\software-debug-break.o
